
example:     file format elf64-x86-64


Disassembly of section .init:

0000000000006000 <_init>:
    6000:	f3 0f 1e fa          	endbr64 
    6004:	48 83 ec 08          	sub    $0x8,%rsp
    6008:	48 8b 05 f9 2c 04 00 	mov    0x42cf9(%rip),%rax        # 48d08 <__gmon_start__>
    600f:	48 85 c0             	test   %rax,%rax
    6012:	74 02                	je     6016 <_init+0x16>
    6014:	ff d0                	callq  *%rax
    6016:	48 83 c4 08          	add    $0x8,%rsp
    601a:	c3                   	retq   

Disassembly of section .plt:

0000000000006020 <.plt>:
    6020:	ff 35 2a 29 04 00    	pushq  0x4292a(%rip)        # 48950 <_GLOBAL_OFFSET_TABLE_+0x8>
    6026:	ff 25 2c 29 04 00    	jmpq   *0x4292c(%rip)        # 48958 <_GLOBAL_OFFSET_TABLE_+0x10>
    602c:	0f 1f 40 00          	nopl   0x0(%rax)

0000000000006030 <__xstat64@plt>:
    6030:	ff 25 2a 29 04 00    	jmpq   *0x4292a(%rip)        # 48960 <__xstat64@GLIBC_2.2.5>
    6036:	68 00 00 00 00       	pushq  $0x0
    603b:	e9 e0 ff ff ff       	jmpq   6020 <.plt>

0000000000006040 <__fxstatat64@plt>:
    6040:	ff 25 22 29 04 00    	jmpq   *0x42922(%rip)        # 48968 <__fxstatat64@GLIBC_2.4>
    6046:	68 01 00 00 00       	pushq  $0x1
    604b:	e9 d0 ff ff ff       	jmpq   6020 <.plt>

0000000000006050 <__tls_get_addr@plt>:
    6050:	ff 25 1a 29 04 00    	jmpq   *0x4291a(%rip)        # 48970 <__tls_get_addr@GLIBC_2.3>
    6056:	68 02 00 00 00       	pushq  $0x2
    605b:	e9 c0 ff ff ff       	jmpq   6020 <.plt>

0000000000006060 <__fxstat64@plt>:
    6060:	ff 25 12 29 04 00    	jmpq   *0x42912(%rip)        # 48978 <__fxstat64@GLIBC_2.2.5>
    6066:	68 03 00 00 00       	pushq  $0x3
    606b:	e9 b0 ff ff ff       	jmpq   6020 <.plt>

0000000000006070 <__lxstat64@plt>:
    6070:	ff 25 0a 29 04 00    	jmpq   *0x4290a(%rip)        # 48980 <__lxstat64@GLIBC_2.2.5>
    6076:	68 04 00 00 00       	pushq  $0x4
    607b:	e9 a0 ff ff ff       	jmpq   6020 <.plt>

0000000000006080 <_Unwind_Resume@plt>:
    6080:	ff 25 02 29 04 00    	jmpq   *0x42902(%rip)        # 48988 <_Unwind_Resume@GCC_3.0>
    6086:	68 05 00 00 00       	pushq  $0x5
    608b:	e9 90 ff ff ff       	jmpq   6020 <.plt>

0000000000006090 <__cxa_finalize@plt>:
    6090:	ff 25 fa 28 04 00    	jmpq   *0x428fa(%rip)        # 48990 <__cxa_finalize@GLIBC_2.2.5>
    6096:	68 06 00 00 00       	pushq  $0x6
    609b:	e9 80 ff ff ff       	jmpq   6020 <.plt>

Disassembly of section .text:

00000000000060a0 <_start>:
    60a0:	f3 0f 1e fa          	endbr64 
    60a4:	31 ed                	xor    %ebp,%ebp
    60a6:	49 89 d1             	mov    %rdx,%r9
    60a9:	5e                   	pop    %rsi
    60aa:	48 89 e2             	mov    %rsp,%rdx
    60ad:	48 83 e4 f0          	and    $0xfffffffffffffff0,%rsp
    60b1:	50                   	push   %rax
    60b2:	54                   	push   %rsp
    60b3:	4c 8d 05 76 16 03 00 	lea    0x31676(%rip),%r8        # 37730 <__libc_csu_fini>
    60ba:	48 8d 0d ff 15 03 00 	lea    0x315ff(%rip),%rcx        # 376c0 <__libc_csu_init>
    60c1:	48 8d 3d 68 0c 00 00 	lea    0xc68(%rip),%rdi        # 6d30 <main>
    60c8:	ff 15 c2 2b 04 00    	callq  *0x42bc2(%rip)        # 48c90 <__libc_start_main@GLIBC_2.2.5>
    60ce:	f4                   	hlt    

00000000000060cf <.annobin_init.c>:
    60cf:	90                   	nop

00000000000060d0 <deregister_tm_clones>:
    60d0:	48 8d 3d 59 2f 04 00 	lea    0x42f59(%rip),%rdi        # 49030 <__TMC_END__>
    60d7:	48 8d 05 52 2f 04 00 	lea    0x42f52(%rip),%rax        # 49030 <__TMC_END__>
    60de:	48 39 f8             	cmp    %rdi,%rax
    60e1:	74 15                	je     60f8 <deregister_tm_clones+0x28>
    60e3:	48 8b 05 56 29 04 00 	mov    0x42956(%rip),%rax        # 48a40 <_ITM_deregisterTMCloneTable>
    60ea:	48 85 c0             	test   %rax,%rax
    60ed:	74 09                	je     60f8 <deregister_tm_clones+0x28>
    60ef:	ff e0                	jmpq   *%rax
    60f1:	0f 1f 80 00 00 00 00 	nopl   0x0(%rax)
    60f8:	c3                   	retq   
    60f9:	0f 1f 80 00 00 00 00 	nopl   0x0(%rax)

0000000000006100 <register_tm_clones>:
    6100:	48 8d 3d 29 2f 04 00 	lea    0x42f29(%rip),%rdi        # 49030 <__TMC_END__>
    6107:	48 8d 35 22 2f 04 00 	lea    0x42f22(%rip),%rsi        # 49030 <__TMC_END__>
    610e:	48 29 fe             	sub    %rdi,%rsi
    6111:	48 89 f0             	mov    %rsi,%rax
    6114:	48 c1 ee 3f          	shr    $0x3f,%rsi
    6118:	48 c1 f8 03          	sar    $0x3,%rax
    611c:	48 01 c6             	add    %rax,%rsi
    611f:	48 d1 fe             	sar    %rsi
    6122:	74 14                	je     6138 <register_tm_clones+0x38>
    6124:	48 8b 05 45 2e 04 00 	mov    0x42e45(%rip),%rax        # 48f70 <_ITM_registerTMCloneTable>
    612b:	48 85 c0             	test   %rax,%rax
    612e:	74 08                	je     6138 <register_tm_clones+0x38>
    6130:	ff e0                	jmpq   *%rax
    6132:	66 0f 1f 44 00 00    	nopw   0x0(%rax,%rax,1)
    6138:	c3                   	retq   
    6139:	0f 1f 80 00 00 00 00 	nopl   0x0(%rax)

0000000000006140 <__do_global_dtors_aux>:
    6140:	f3 0f 1e fa          	endbr64 
    6144:	80 3d e5 2e 04 00 00 	cmpb   $0x0,0x42ee5(%rip)        # 49030 <__TMC_END__>
    614b:	75 2b                	jne    6178 <__do_global_dtors_aux+0x38>
    614d:	55                   	push   %rbp
    614e:	48 83 3d 62 2e 04 00 	cmpq   $0x0,0x42e62(%rip)        # 48fb8 <__cxa_finalize@GLIBC_2.2.5>
    6155:	00 
    6156:	48 89 e5             	mov    %rsp,%rbp
    6159:	74 0c                	je     6167 <__do_global_dtors_aux+0x27>
    615b:	48 8d 3d d6 02 04 00 	lea    0x402d6(%rip),%rdi        # 46438 <__dso_handle>
    6162:	e8 29 ff ff ff       	callq  6090 <__cxa_finalize@plt>
    6167:	e8 64 ff ff ff       	callq  60d0 <deregister_tm_clones>
    616c:	c6 05 bd 2e 04 00 01 	movb   $0x1,0x42ebd(%rip)        # 49030 <__TMC_END__>
    6173:	5d                   	pop    %rbp
    6174:	c3                   	retq   
    6175:	0f 1f 00             	nopl   (%rax)
    6178:	c3                   	retq   
    6179:	0f 1f 80 00 00 00 00 	nopl   0x0(%rax)

0000000000006180 <frame_dummy>:
    6180:	f3 0f 1e fa          	endbr64 
    6184:	e9 77 ff ff ff       	jmpq   6100 <register_tm_clones>
    6189:	0f 1f 80 00 00 00 00 	nopl   0x0(%rax)

0000000000006190 <_ZN42_$LT$$RF$T$u20$as$u20$core..fmt..Debug$GT$3fmt17hf4c2f663ccd378ceE>:
    6190:	50                   	push   %rax
    6191:	48 8b 3f             	mov    (%rdi),%rdi
    6194:	e8 27 00 00 00       	callq  61c0 <_ZN4core3fmt3num52_$LT$impl$u20$core..fmt..Debug$u20$for$u20$usize$GT$3fmt17h9dd72e46b2aa4c1cE>
    6199:	59                   	pop    %rcx
    619a:	c3                   	retq   
    619b:	0f 1f 44 00 00       	nopl   0x0(%rax,%rax,1)

00000000000061a0 <_ZN4core3fmt10ArgumentV13new17h3bcf83ac54c754f3E>:
    61a0:	48 89 f2             	mov    %rsi,%rdx
    61a3:	48 89 f8             	mov    %rdi,%rax
    61a6:	c3                   	retq   
    61a7:	66 0f 1f 84 00 00 00 	nopw   0x0(%rax,%rax,1)
    61ae:	00 00 

00000000000061b0 <_ZN4core3fmt10ArgumentV13new17haaebda236109e592E>:
    61b0:	48 89 f2             	mov    %rsi,%rdx
    61b3:	48 89 f8             	mov    %rdi,%rax
    61b6:	c3                   	retq   
    61b7:	66 0f 1f 84 00 00 00 	nopw   0x0(%rax,%rax,1)
    61be:	00 00 

00000000000061c0 <_ZN4core3fmt3num52_$LT$impl$u20$core..fmt..Debug$u20$for$u20$usize$GT$3fmt17h9dd72e46b2aa4c1cE>:
    61c0:	41 56                	push   %r14
    61c2:	53                   	push   %rbx
    61c3:	50                   	push   %rax
    61c4:	48 89 f3             	mov    %rsi,%rbx
    61c7:	49 89 fe             	mov    %rdi,%r14
    61ca:	48 89 f7             	mov    %rsi,%rdi
    61cd:	ff 15 7d 28 04 00    	callq  *0x4287d(%rip)        # 48a50 <_GLOBAL_OFFSET_TABLE_+0x108>
    61d3:	84 c0                	test   %al,%al
    61d5:	74 0e                	je     61e5 <_ZN4core3fmt3num52_$LT$impl$u20$core..fmt..Debug$u20$for$u20$usize$GT$3fmt17h9dd72e46b2aa4c1cE+0x25>
    61d7:	4c 89 f7             	mov    %r14,%rdi
    61da:	48 89 de             	mov    %rbx,%rsi
    61dd:	ff 15 25 2c 04 00    	callq  *0x42c25(%rip)        # 48e08 <_GLOBAL_OFFSET_TABLE_+0x4c0>
    61e3:	eb 21                	jmp    6206 <_ZN4core3fmt3num52_$LT$impl$u20$core..fmt..Debug$u20$for$u20$usize$GT$3fmt17h9dd72e46b2aa4c1cE+0x46>
    61e5:	48 89 df             	mov    %rbx,%rdi
    61e8:	ff 15 6a 2b 04 00    	callq  *0x42b6a(%rip)        # 48d58 <_GLOBAL_OFFSET_TABLE_+0x410>
    61ee:	4c 89 f7             	mov    %r14,%rdi
    61f1:	48 89 de             	mov    %rbx,%rsi
    61f4:	84 c0                	test   %al,%al
    61f6:	74 08                	je     6200 <_ZN4core3fmt3num52_$LT$impl$u20$core..fmt..Debug$u20$for$u20$usize$GT$3fmt17h9dd72e46b2aa4c1cE+0x40>
    61f8:	ff 15 32 2c 04 00    	callq  *0x42c32(%rip)        # 48e30 <_GLOBAL_OFFSET_TABLE_+0x4e8>
    61fe:	eb 06                	jmp    6206 <_ZN4core3fmt3num52_$LT$impl$u20$core..fmt..Debug$u20$for$u20$usize$GT$3fmt17h9dd72e46b2aa4c1cE+0x46>
    6200:	ff 15 aa 29 04 00    	callq  *0x429aa(%rip)        # 48bb0 <_GLOBAL_OFFSET_TABLE_+0x268>
    6206:	48 83 c4 08          	add    $0x8,%rsp
    620a:	5b                   	pop    %rbx
    620b:	41 5e                	pop    %r14
    620d:	c3                   	retq   
    620e:	66 90                	xchg   %ax,%ax

0000000000006210 <_ZN3std10sys_common9backtrace28__rust_begin_short_backtrace17h657ac3c91cd53a42E>:
    6210:	50                   	push   %rax
    6211:	e8 0a 00 00 00       	callq  6220 <_ZN4core3ops8function6FnOnce9call_once17h9f4e564ab7a1bee9E>
    6216:	e8 15 00 00 00       	callq  6230 <_ZN4core4hint9black_box17hed5a7a85c92772b3E>
    621b:	58                   	pop    %rax
    621c:	c3                   	retq   
    621d:	0f 1f 00             	nopl   (%rax)

0000000000006220 <_ZN4core3ops8function6FnOnce9call_once17h9f4e564ab7a1bee9E>:
    6220:	50                   	push   %rax
    6221:	ff d7                	callq  *%rdi
    6223:	58                   	pop    %rax
    6224:	c3                   	retq   
    6225:	66 2e 0f 1f 84 00 00 	nopw   %cs:0x0(%rax,%rax,1)
    622c:	00 00 00 
    622f:	90                   	nop

0000000000006230 <_ZN4core4hint9black_box17hed5a7a85c92772b3E>:
    6230:	50                   	push   %rax
    6231:	48 89 e0             	mov    %rsp,%rax
    6234:	58                   	pop    %rax
    6235:	c3                   	retq   
    6236:	66 2e 0f 1f 84 00 00 	nopw   %cs:0x0(%rax,%rax,1)
    623d:	00 00 00 

0000000000006240 <_ZN119_$LT$core..ptr..non_null..NonNull$LT$T$GT$$u20$as$u20$core..convert..From$LT$core..ptr..unique..Unique$LT$T$GT$$GT$$GT$4from17h632632ce3db72a81E.llvm.10943933216912546684>:
    6240:	50                   	push   %rax
    6241:	e8 0a 00 00 00       	callq  6250 <_ZN4core3ptr6unique15Unique$LT$T$GT$6as_ptr17hd611519b788a69c8E.llvm.10943933216912546684>
    6246:	48 89 c7             	mov    %rax,%rdi
    6249:	e8 12 00 00 00       	callq  6260 <_ZN4core3ptr8non_null16NonNull$LT$T$GT$13new_unchecked17hf7041c463eadf53cE.llvm.10943933216912546684>
    624e:	59                   	pop    %rcx
    624f:	c3                   	retq   

0000000000006250 <_ZN4core3ptr6unique15Unique$LT$T$GT$6as_ptr17hd611519b788a69c8E.llvm.10943933216912546684>:
    6250:	48 89 f8             	mov    %rdi,%rax
    6253:	c3                   	retq   
    6254:	66 2e 0f 1f 84 00 00 	nopw   %cs:0x0(%rax,%rax,1)
    625b:	00 00 00 
    625e:	66 90                	xchg   %ax,%ax

0000000000006260 <_ZN4core3ptr8non_null16NonNull$LT$T$GT$13new_unchecked17hf7041c463eadf53cE.llvm.10943933216912546684>:
    6260:	48 89 f8             	mov    %rdi,%rax
    6263:	c3                   	retq   
    6264:	66 2e 0f 1f 84 00 00 	nopw   %cs:0x0(%rax,%rax,1)
    626b:	00 00 00 
    626e:	66 90                	xchg   %ax,%ax

0000000000006270 <_ZN50_$LT$T$u20$as$u20$core..convert..Into$LT$U$GT$$GT$4into17hf49a1276d6c4dbf8E>:
    6270:	50                   	push   %rax
    6271:	e8 ca ff ff ff       	callq  6240 <_ZN119_$LT$core..ptr..non_null..NonNull$LT$T$GT$$u20$as$u20$core..convert..From$LT$core..ptr..unique..Unique$LT$T$GT$$GT$$GT$4from17h632632ce3db72a81E.llvm.10943933216912546684>
    6276:	59                   	pop    %rcx
    6277:	c3                   	retq   
    6278:	0f 1f 84 00 00 00 00 	nopl   0x0(%rax,%rax,1)
    627f:	00 

0000000000006280 <_ZN3std2rt10lang_start17h0f76dfa69d165b3fE>:
    6280:	50                   	push   %rax
    6281:	48 89 d1             	mov    %rdx,%rcx
    6284:	48 89 f2             	mov    %rsi,%rdx
    6287:	48 89 3c 24          	mov    %rdi,(%rsp)
    628b:	48 8d 35 ae 01 04 00 	lea    0x401ae(%rip),%rsi        # 46440 <anon.14c24cb995e3d6e38322ebd61970439a.0.llvm.3793478678705122716>
    6292:	48 89 e7             	mov    %rsp,%rdi
    6295:	ff 15 0d 2b 04 00    	callq  *0x42b0d(%rip)        # 48da8 <_GLOBAL_OFFSET_TABLE_+0x460>
    629b:	59                   	pop    %rcx
    629c:	c3                   	retq   
    629d:	0f 1f 00             	nopl   (%rax)

00000000000062a0 <_ZN3std2rt10lang_start28_$u7b$$u7b$closure$u7d$$u7d$17h565533ca7638e03eE>:
    62a0:	50                   	push   %rax
    62a1:	48 8b 3f             	mov    (%rdi),%rdi
    62a4:	e8 67 ff ff ff       	callq  6210 <_ZN3std10sys_common9backtrace28__rust_begin_short_backtrace17h657ac3c91cd53a42E>
    62a9:	e8 42 00 00 00       	callq  62f0 <_ZN54_$LT$$LP$$RP$$u20$as$u20$std..process..Termination$GT$6report17hf0ad3142e8941259E>
    62ae:	59                   	pop    %rcx
    62af:	c3                   	retq   

00000000000062b0 <_ZN3std3sys4unix7process14process_common8ExitCode6as_i3217hac0231324faa10f1E>:
    62b0:	0f b6 07             	movzbl (%rdi),%eax
    62b3:	c3                   	retq   
    62b4:	66 2e 0f 1f 84 00 00 	nopw   %cs:0x0(%rax,%rax,1)
    62bb:	00 00 00 
    62be:	66 90                	xchg   %ax,%ax

00000000000062c0 <_ZN4core3ops8function6FnOnce40call_once$u7b$$u7b$vtable.shim$u7d$$u7d$17hf6b523a0335bcfabE>:
    62c0:	50                   	push   %rax
    62c1:	48 8b 3f             	mov    (%rdi),%rdi
    62c4:	e8 07 00 00 00       	callq  62d0 <_ZN4core3ops8function6FnOnce9call_once17h89b3286ec66b622eE>
    62c9:	59                   	pop    %rcx
    62ca:	c3                   	retq   
    62cb:	0f 1f 44 00 00       	nopl   0x0(%rax,%rax,1)

00000000000062d0 <_ZN4core3ops8function6FnOnce9call_once17h89b3286ec66b622eE>:
    62d0:	50                   	push   %rax
    62d1:	48 89 3c 24          	mov    %rdi,(%rsp)
    62d5:	48 89 e7             	mov    %rsp,%rdi
    62d8:	e8 c3 ff ff ff       	callq  62a0 <_ZN3std2rt10lang_start28_$u7b$$u7b$closure$u7d$$u7d$17h565533ca7638e03eE>
    62dd:	59                   	pop    %rcx
    62de:	c3                   	retq   
    62df:	90                   	nop

00000000000062e0 <_ZN4core3ptr13drop_in_place17h833954126a7ad128E>:
    62e0:	c3                   	retq   
    62e1:	66 2e 0f 1f 84 00 00 	nopw   %cs:0x0(%rax,%rax,1)
    62e8:	00 00 00 
    62eb:	0f 1f 44 00 00       	nopl   0x0(%rax,%rax,1)

00000000000062f0 <_ZN54_$LT$$LP$$RP$$u20$as$u20$std..process..Termination$GT$6report17hf0ad3142e8941259E>:
    62f0:	50                   	push   %rax
    62f1:	e8 0a 00 00 00       	callq  6300 <_ZN68_$LT$std..process..ExitCode$u20$as$u20$std..process..Termination$GT$6report17h0e1af4934e9f7bf6E>
    62f6:	59                   	pop    %rcx
    62f7:	c3                   	retq   
    62f8:	0f 1f 84 00 00 00 00 	nopl   0x0(%rax,%rax,1)
    62ff:	00 

0000000000006300 <_ZN68_$LT$std..process..ExitCode$u20$as$u20$std..process..Termination$GT$6report17h0e1af4934e9f7bf6E>:
    6300:	50                   	push   %rax
    6301:	c6 44 24 07 00       	movb   $0x0,0x7(%rsp)
    6306:	48 8d 7c 24 07       	lea    0x7(%rsp),%rdi
    630b:	e8 a0 ff ff ff       	callq  62b0 <_ZN3std3sys4unix7process14process_common8ExitCode6as_i3217hac0231324faa10f1E>
    6310:	59                   	pop    %rcx
    6311:	c3                   	retq   
    6312:	66 2e 0f 1f 84 00 00 	nopw   %cs:0x0(%rax,%rax,1)
    6319:	00 00 00 
    631c:	0f 1f 40 00          	nopl   0x0(%rax)

0000000000006320 <_ZN138_$LT$$LT$alloc..vec..IntoIter$LT$T$GT$$u20$as$u20$core..ops..drop..Drop$GT$..drop..DropGuard$LT$T$GT$$u20$as$u20$core..ops..drop..Drop$GT$4drop17h7d0c34e53e58998aE.llvm.7453466287219170887>:
    6320:	53                   	push   %rbx
    6321:	48 83 ec 10          	sub    $0x10,%rsp
    6325:	48 8b 1f             	mov    (%rdi),%rbx
    6328:	48 8b 3b             	mov    (%rbx),%rdi
    632b:	e8 90 01 00 00       	callq  64c0 <_ZN4core3ptr8non_null16NonNull$LT$T$GT$6as_ptr17hf163b1e95abe4da5E.llvm.7453466287219170887>
    6330:	48 8b 73 08          	mov    0x8(%rbx),%rsi
    6334:	48 89 c7             	mov    %rax,%rdi
    6337:	e8 04 03 00 00       	callq  6640 <_ZN5alloc7raw_vec15RawVec$LT$T$GT$14from_raw_parts17hdd96f78f1866e690E.llvm.7453466287219170887>
    633c:	48 89 04 24          	mov    %rax,(%rsp)
    6340:	48 89 54 24 08       	mov    %rdx,0x8(%rsp)
    6345:	48 89 e7             	mov    %rsp,%rdi
    6348:	e8 63 00 00 00       	callq  63b0 <_ZN4core3ptr13drop_in_place17h3b236244639167a8E.llvm.7453466287219170887>
    634d:	48 83 c4 10          	add    $0x10,%rsp
    6351:	5b                   	pop    %rbx
    6352:	c3                   	retq   
    6353:	66 2e 0f 1f 84 00 00 	nopw   %cs:0x0(%rax,%rax,1)
    635a:	00 00 00 
    635d:	0f 1f 00             	nopl   (%rax)

0000000000006360 <_ZN4core3cmp5impls56_$LT$impl$u20$core..cmp..PartialEq$u20$for$u20$usize$GT$2eq17h4e8dea007bd74542E>:
    6360:	48 8b 07             	mov    (%rdi),%rax
    6363:	48 3b 06             	cmp    (%rsi),%rax
    6366:	0f 94 c0             	sete   %al
    6369:	c3                   	retq   
    636a:	66 0f 1f 44 00 00    	nopw   0x0(%rax,%rax,1)

0000000000006370 <_ZN4core3fmt9Arguments6new_v117h52332ad64d40bfe2E>:
    6370:	48 89 f8             	mov    %rdi,%rax
    6373:	48 8d 0d f6 00 04 00 	lea    0x400f6(%rip),%rcx        # 46470 <anon.14c24cb995e3d6e38322ebd61970439a.0.llvm.3793478678705122716+0x30>
    637a:	48 89 0f             	mov    %rcx,(%rdi)
    637d:	48 c7 47 08 03 00 00 	movq   $0x3,0x8(%rdi)
    6384:	00 
    6385:	48 c7 47 10 00 00 00 	movq   $0x0,0x10(%rdi)
    638c:	00 
    638d:	48 89 77 20          	mov    %rsi,0x20(%rdi)
    6391:	48 c7 47 28 02 00 00 	movq   $0x2,0x28(%rdi)
    6398:	00 
    6399:	c3                   	retq   
    639a:	66 0f 1f 44 00 00    	nopw   0x0(%rax,%rax,1)

00000000000063a0 <_ZN4core3ptr13drop_in_place17h1610190ffb163a37E.llvm.7453466287219170887>:
    63a0:	50                   	push   %rax
    63a1:	e8 7a ff ff ff       	callq  6320 <_ZN138_$LT$$LT$alloc..vec..IntoIter$LT$T$GT$$u20$as$u20$core..ops..drop..Drop$GT$..drop..DropGuard$LT$T$GT$$u20$as$u20$core..ops..drop..Drop$GT$4drop17h7d0c34e53e58998aE.llvm.7453466287219170887>
    63a6:	58                   	pop    %rax
    63a7:	c3                   	retq   
    63a8:	0f 1f 84 00 00 00 00 	nopl   0x0(%rax,%rax,1)
    63af:	00 

00000000000063b0 <_ZN4core3ptr13drop_in_place17h3b236244639167a8E.llvm.7453466287219170887>:
    63b0:	50                   	push   %rax
    63b1:	e8 aa 06 00 00       	callq  6a60 <_ZN77_$LT$alloc..raw_vec..RawVec$LT$T$C$A$GT$$u20$as$u20$core..ops..drop..Drop$GT$4drop17he5e417221ba05df3E>
    63b6:	58                   	pop    %rax
    63b7:	c3                   	retq   
    63b8:	0f 1f 84 00 00 00 00 	nopl   0x0(%rax,%rax,1)
    63bf:	00 

00000000000063c0 <_ZN4core3ptr13drop_in_place17h5c8fcbd246311efbE.llvm.7453466287219170887>:
    63c0:	50                   	push   %rax
    63c1:	e8 2a 00 00 00       	callq  63f0 <_ZN4core3ptr13drop_in_place17ha27b61fa0fa1e565E.llvm.7453466287219170887>
    63c6:	58                   	pop    %rax
    63c7:	c3                   	retq   
    63c8:	0f 1f 84 00 00 00 00 	nopl   0x0(%rax,%rax,1)
    63cf:	00 

00000000000063d0 <_ZN4core3ptr13drop_in_place17h6d36eed22ebaee2dE.llvm.7453466287219170887>:
    63d0:	53                   	push   %rbx
    63d1:	48 89 fb             	mov    %rdi,%rbx
    63d4:	e8 87 02 00 00       	callq  6660 <_ZN66_$LT$alloc..vec..Vec$LT$T$GT$$u20$as$u20$core..ops..drop..Drop$GT$4drop17hca11aa0c49ce2fd9E>
    63d9:	48 89 df             	mov    %rbx,%rdi
    63dc:	e8 7f 00 00 00       	callq  6460 <_ZN4core3ptr13drop_in_place17he0104d388fb82ceeE.llvm.7453466287219170887>
    63e1:	5b                   	pop    %rbx
    63e2:	c3                   	retq   
    63e3:	66 2e 0f 1f 84 00 00 	nopw   %cs:0x0(%rax,%rax,1)
    63ea:	00 00 00 
    63ed:	0f 1f 00             	nopl   (%rax)

00000000000063f0 <_ZN4core3ptr13drop_in_place17ha27b61fa0fa1e565E.llvm.7453466287219170887>:
    63f0:	50                   	push   %rax
    63f1:	e8 da ff ff ff       	callq  63d0 <_ZN4core3ptr13drop_in_place17h6d36eed22ebaee2dE.llvm.7453466287219170887>
    63f6:	58                   	pop    %rax
    63f7:	c3                   	retq   
    63f8:	0f 1f 84 00 00 00 00 	nopl   0x0(%rax,%rax,1)
    63ff:	00 

0000000000006400 <_ZN4core3ptr13drop_in_place17ha51e2a8f026350ccE.llvm.7453466287219170887>:
    6400:	41 57                	push   %r15
    6402:	41 56                	push   %r14
    6404:	53                   	push   %rbx
    6405:	49 89 ff             	mov    %rdi,%r15
    6408:	48 c1 e6 03          	shl    $0x3,%rsi
    640c:	48 8d 1c 76          	lea    (%rsi,%rsi,2),%rbx
    6410:	48 85 db             	test   %rbx,%rbx
    6413:	74 12                	je     6427 <_ZN4core3ptr13drop_in_place17ha51e2a8f026350ccE.llvm.7453466287219170887+0x27>
    6415:	48 83 c3 e8          	add    $0xffffffffffffffe8,%rbx
    6419:	4c 89 ff             	mov    %r15,%rdi
    641c:	49 83 c7 18          	add    $0x18,%r15
    6420:	e8 9b ff ff ff       	callq  63c0 <_ZN4core3ptr13drop_in_place17h5c8fcbd246311efbE.llvm.7453466287219170887>
    6425:	eb e9                	jmp    6410 <_ZN4core3ptr13drop_in_place17ha51e2a8f026350ccE.llvm.7453466287219170887+0x10>
    6427:	5b                   	pop    %rbx
    6428:	41 5e                	pop    %r14
    642a:	41 5f                	pop    %r15
    642c:	c3                   	retq   
    642d:	49 89 c6             	mov    %rax,%r14
    6430:	48 85 db             	test   %rbx,%rbx
    6433:	74 12                	je     6447 <_ZN4core3ptr13drop_in_place17ha51e2a8f026350ccE.llvm.7453466287219170887+0x47>
    6435:	4c 89 ff             	mov    %r15,%rdi
    6438:	49 83 c7 18          	add    $0x18,%r15
    643c:	e8 7f ff ff ff       	callq  63c0 <_ZN4core3ptr13drop_in_place17h5c8fcbd246311efbE.llvm.7453466287219170887>
    6441:	48 83 c3 e8          	add    $0xffffffffffffffe8,%rbx
    6445:	75 ee                	jne    6435 <_ZN4core3ptr13drop_in_place17ha51e2a8f026350ccE.llvm.7453466287219170887+0x35>
    6447:	4c 89 f7             	mov    %r14,%rdi
    644a:	e8 31 fc ff ff       	callq  6080 <_Unwind_Resume@plt>
    644f:	0f 0b                	ud2    
    6451:	66 2e 0f 1f 84 00 00 	nopw   %cs:0x0(%rax,%rax,1)
    6458:	00 00 00 
    645b:	0f 1f 44 00 00       	nopl   0x0(%rax,%rax,1)

0000000000006460 <_ZN4core3ptr13drop_in_place17he0104d388fb82ceeE.llvm.7453466287219170887>:
    6460:	50                   	push   %rax
    6461:	e8 ca 05 00 00       	callq  6a30 <_ZN77_$LT$alloc..raw_vec..RawVec$LT$T$C$A$GT$$u20$as$u20$core..ops..drop..Drop$GT$4drop17h95e3c74ff75d3848E>
    6466:	58                   	pop    %rax
    6467:	c3                   	retq   
    6468:	0f 1f 84 00 00 00 00 	nopl   0x0(%rax,%rax,1)
    646f:	00 

0000000000006470 <_ZN4core3ptr20slice_from_raw_parts17h8f5b737edc6a29deE.llvm.7453466287219170887>:
    6470:	48 89 f2             	mov    %rsi,%rdx
    6473:	48 89 f8             	mov    %rdi,%rax
    6476:	c3                   	retq   
    6477:	66 0f 1f 84 00 00 00 	nopw   0x0(%rax,%rax,1)
    647e:	00 00 

0000000000006480 <_ZN4core3ptr24slice_from_raw_parts_mut17h9806ed105972587fE.llvm.7453466287219170887>:
    6480:	48 89 f2             	mov    %rsi,%rdx
    6483:	48 89 f8             	mov    %rdi,%rax
    6486:	c3                   	retq   
    6487:	66 0f 1f 84 00 00 00 	nopw   0x0(%rax,%rax,1)
    648e:	00 00 

0000000000006490 <_ZN4core3ptr6unique15Unique$LT$T$GT$13new_unchecked17h4b4681633042f4edE.llvm.7453466287219170887>:
    6490:	48 89 f8             	mov    %rdi,%rax
    6493:	c3                   	retq   
    6494:	66 2e 0f 1f 84 00 00 	nopw   %cs:0x0(%rax,%rax,1)
    649b:	00 00 00 
    649e:	66 90                	xchg   %ax,%ax

00000000000064a0 <_ZN4core3ptr7mut_ptr31_$LT$impl$u20$$BP$mut$u20$T$GT$13guaranteed_eq17hbfae952073414db8E.llvm.7453466287219170887>:
    64a0:	48 85 ff             	test   %rdi,%rdi
    64a3:	0f 94 c0             	sete   %al
    64a6:	c3                   	retq   
    64a7:	66 0f 1f 84 00 00 00 	nopw   0x0(%rax,%rax,1)
    64ae:	00 00 

00000000000064b0 <_ZN4core3ptr7mut_ptr31_$LT$impl$u20$$BP$mut$u20$T$GT$7is_null17hb3dc45bd99a75478E.llvm.7453466287219170887>:
    64b0:	50                   	push   %rax
    64b1:	e8 ea ff ff ff       	callq  64a0 <_ZN4core3ptr7mut_ptr31_$LT$impl$u20$$BP$mut$u20$T$GT$13guaranteed_eq17hbfae952073414db8E.llvm.7453466287219170887>
    64b6:	59                   	pop    %rcx
    64b7:	c3                   	retq   
    64b8:	0f 1f 84 00 00 00 00 	nopl   0x0(%rax,%rax,1)
    64bf:	00 

00000000000064c0 <_ZN4core3ptr8non_null16NonNull$LT$T$GT$6as_ptr17hf163b1e95abe4da5E.llvm.7453466287219170887>:
    64c0:	48 89 f8             	mov    %rdi,%rax
    64c3:	c3                   	retq   
    64c4:	66 2e 0f 1f 84 00 00 	nopw   %cs:0x0(%rax,%rax,1)
    64cb:	00 00 00 
    64ce:	66 90                	xchg   %ax,%ax

00000000000064d0 <_ZN4core3ptr9const_ptr33_$LT$impl$u20$$BP$const$u20$T$GT$11offset_from17h5655890ae903fad8E>:
    64d0:	48 29 f7             	sub    %rsi,%rdi
    64d3:	48 c1 ff 03          	sar    $0x3,%rdi
    64d7:	48 b8 ab aa aa aa aa 	movabs $0xaaaaaaaaaaaaaaab,%rax
    64de:	aa aa aa 
    64e1:	48 0f af c7          	imul   %rdi,%rax
    64e5:	c3                   	retq   
    64e6:	66 2e 0f 1f 84 00 00 	nopw   %cs:0x0(%rax,%rax,1)
    64ed:	00 00 00 

00000000000064f0 <_ZN4core4iter6traits10exact_size17ExactSizeIterator3len17h65ad0cc45a5881e1E.llvm.7453466287219170887>:
    64f0:	41 57                	push   %r15
    64f2:	41 56                	push   %r14
    64f4:	53                   	push   %rbx
    64f5:	48 81 ec 80 00 00 00 	sub    $0x80,%rsp
    64fc:	48 89 fe             	mov    %rdi,%rsi
    64ff:	48 8d 7c 24 50       	lea    0x50(%rsp),%rdi
    6504:	e8 17 02 00 00       	callq  6720 <_ZN88_$LT$alloc..vec..IntoIter$LT$T$GT$$u20$as$u20$core..iter..traits..iterator..Iterator$GT$9size_hint17he4c0d96c06b3a868E>
    6509:	48 8b 5c 24 50       	mov    0x50(%rsp),%rbx
    650e:	0f 10 44 24 58       	movups 0x58(%rsp),%xmm0
    6513:	0f 11 44 24 40       	movups %xmm0,0x40(%rsp)
    6518:	48 89 5c 24 18       	mov    %rbx,0x18(%rsp)
    651d:	48 c7 44 24 10 01 00 	movq   $0x1,0x10(%rsp)
    6524:	00 00 
    6526:	4c 8d 74 24 40       	lea    0x40(%rsp),%r14
    652b:	4c 8d 7c 24 10       	lea    0x10(%rsp),%r15
    6530:	4c 89 f7             	mov    %r14,%rdi
    6533:	4c 89 fe             	mov    %r15,%rsi
    6536:	e8 55 01 00 00       	callq  6690 <_ZN70_$LT$core..option..Option$LT$T$GT$$u20$as$u20$core..cmp..PartialEq$GT$2eq17hb17c23eab9ad3954E>
    653b:	84 c0                	test   %al,%al
    653d:	74 10                	je     654f <_ZN4core4iter6traits10exact_size17ExactSizeIterator3len17h65ad0cc45a5881e1E.llvm.7453466287219170887+0x5f>
    653f:	48 89 d8             	mov    %rbx,%rax
    6542:	48 81 c4 80 00 00 00 	add    $0x80,%rsp
    6549:	5b                   	pop    %rbx
    654a:	41 5e                	pop    %r14
    654c:	41 5f                	pop    %r15
    654e:	c3                   	retq   
    654f:	4c 89 34 24          	mov    %r14,(%rsp)
    6553:	4c 89 7c 24 08       	mov    %r15,0x8(%rsp)
    6558:	4c 8d 35 f1 01 00 00 	lea    0x1f1(%rip),%r14        # 6750 <_ZN42_$LT$$RF$T$u20$as$u20$core..fmt..Debug$GT$3fmt17h7bc0c808fcdb7de2E>
    655f:	48 89 e7             	mov    %rsp,%rdi
    6562:	4c 89 f6             	mov    %r14,%rsi
    6565:	e8 36 fc ff ff       	callq  61a0 <_ZN4core3fmt10ArgumentV13new17h3bcf83ac54c754f3E>
    656a:	48 89 c3             	mov    %rax,%rbx
    656d:	49 89 d7             	mov    %rdx,%r15
    6570:	48 8d 7c 24 08       	lea    0x8(%rsp),%rdi
    6575:	4c 89 f6             	mov    %r14,%rsi
    6578:	e8 23 fc ff ff       	callq  61a0 <_ZN4core3fmt10ArgumentV13new17h3bcf83ac54c754f3E>
    657d:	48 89 5c 24 20       	mov    %rbx,0x20(%rsp)
    6582:	4c 89 7c 24 28       	mov    %r15,0x28(%rsp)
    6587:	48 89 44 24 30       	mov    %rax,0x30(%rsp)
    658c:	48 89 54 24 38       	mov    %rdx,0x38(%rsp)
    6591:	48 8d 5c 24 50       	lea    0x50(%rsp),%rbx
    6596:	48 8d 74 24 20       	lea    0x20(%rsp),%rsi
    659b:	48 89 df             	mov    %rbx,%rdi
    659e:	e8 cd fd ff ff       	callq  6370 <_ZN4core3fmt9Arguments6new_v117h52332ad64d40bfe2E>
    65a3:	48 8d 35 f6 fe 03 00 	lea    0x3fef6(%rip),%rsi        # 464a0 <anon.14c24cb995e3d6e38322ebd61970439a.0.llvm.3793478678705122716+0x60>
    65aa:	48 89 df             	mov    %rbx,%rdi
    65ad:	ff 15 85 26 04 00    	callq  *0x42685(%rip)        # 48c38 <_GLOBAL_OFFSET_TABLE_+0x2f0>
    65b3:	0f 0b                	ud2    
    65b5:	66 2e 0f 1f 84 00 00 	nopw   %cs:0x0(%rax,%rax,1)
    65bc:	00 00 00 
    65bf:	90                   	nop

00000000000065c0 <_ZN4core5slice14from_raw_parts17hc36aacb3330d9a5eE.llvm.7453466287219170887>:
    65c0:	50                   	push   %rax
    65c1:	e8 aa fe ff ff       	callq  6470 <_ZN4core3ptr20slice_from_raw_parts17h8f5b737edc6a29deE.llvm.7453466287219170887>
    65c6:	59                   	pop    %rcx
    65c7:	c3                   	retq   
    65c8:	0f 1f 84 00 00 00 00 	nopl   0x0(%rax,%rax,1)
    65cf:	00 

00000000000065d0 <_ZN5alloc3vec12Vec$LT$T$GT$10as_mut_ptr17h6f553574f54dff07E.llvm.7453466287219170887>:
    65d0:	53                   	push   %rbx
    65d1:	e8 fa 03 00 00       	callq  69d0 <_ZN5alloc7raw_vec19RawVec$LT$T$C$A$GT$3ptr17hf732747f8a681c07E>
    65d6:	48 89 c3             	mov    %rax,%rbx
    65d9:	48 89 c7             	mov    %rax,%rdi
    65dc:	e8 cf fe ff ff       	callq  64b0 <_ZN4core3ptr7mut_ptr31_$LT$impl$u20$$BP$mut$u20$T$GT$7is_null17hb3dc45bd99a75478E.llvm.7453466287219170887>
    65e1:	48 89 d8             	mov    %rbx,%rax
    65e4:	5b                   	pop    %rbx
    65e5:	c3                   	retq   
    65e6:	66 2e 0f 1f 84 00 00 	nopw   %cs:0x0(%rax,%rax,1)
    65ed:	00 00 00 

00000000000065f0 <_ZN5alloc3vec12Vec$LT$T$GT$6as_ptr17h57960c2ce5354a51E.llvm.7453466287219170887>:
    65f0:	53                   	push   %rbx
    65f1:	e8 da 03 00 00       	callq  69d0 <_ZN5alloc7raw_vec19RawVec$LT$T$C$A$GT$3ptr17hf732747f8a681c07E>
    65f6:	48 89 c3             	mov    %rax,%rbx
    65f9:	48 89 c7             	mov    %rax,%rdi
    65fc:	e8 af fe ff ff       	callq  64b0 <_ZN4core3ptr7mut_ptr31_$LT$impl$u20$$BP$mut$u20$T$GT$7is_null17hb3dc45bd99a75478E.llvm.7453466287219170887>
    6601:	48 89 d8             	mov    %rbx,%rax
    6604:	5b                   	pop    %rbx
    6605:	c3                   	retq   
    6606:	66 2e 0f 1f 84 00 00 	nopw   %cs:0x0(%rax,%rax,1)
    660d:	00 00 00 

0000000000006610 <_ZN5alloc3vec17IntoIter$LT$T$GT$16as_raw_mut_slice17hef30baafa0f8ab07E.llvm.7453466287219170887>:
    6610:	53                   	push   %rbx
    6611:	48 83 ec 10          	sub    $0x10,%rsp
    6615:	48 89 7c 24 08       	mov    %rdi,0x8(%rsp)
    661a:	48 8b 5f 10          	mov    0x10(%rdi),%rbx
    661e:	48 8d 7c 24 08       	lea    0x8(%rsp),%rdi
    6623:	e8 e8 00 00 00       	callq  6710 <_ZN83_$LT$$RF$mut$u20$I$u20$as$u20$core..iter..traits..exact_size..ExactSizeIterator$GT$3len17he93420aee7b9be49E.llvm.7453466287219170887>
    6628:	48 89 df             	mov    %rbx,%rdi
    662b:	48 89 c6             	mov    %rax,%rsi
    662e:	e8 4d fe ff ff       	callq  6480 <_ZN4core3ptr24slice_from_raw_parts_mut17h9806ed105972587fE.llvm.7453466287219170887>
    6633:	48 83 c4 10          	add    $0x10,%rsp
    6637:	5b                   	pop    %rbx
    6638:	c3                   	retq   
    6639:	0f 1f 80 00 00 00 00 	nopl   0x0(%rax)

0000000000006640 <_ZN5alloc7raw_vec15RawVec$LT$T$GT$14from_raw_parts17hdd96f78f1866e690E.llvm.7453466287219170887>:
    6640:	50                   	push   %rax
    6641:	e8 0a 00 00 00       	callq  6650 <_ZN5alloc7raw_vec19RawVec$LT$T$C$A$GT$17from_raw_parts_in17h14fb3bd94cff92acE.llvm.7453466287219170887>
    6646:	59                   	pop    %rcx
    6647:	c3                   	retq   
    6648:	0f 1f 84 00 00 00 00 	nopl   0x0(%rax,%rax,1)
    664f:	00 

0000000000006650 <_ZN5alloc7raw_vec19RawVec$LT$T$C$A$GT$17from_raw_parts_in17h14fb3bd94cff92acE.llvm.7453466287219170887>:
    6650:	53                   	push   %rbx
    6651:	48 89 f3             	mov    %rsi,%rbx
    6654:	e8 37 fe ff ff       	callq  6490 <_ZN4core3ptr6unique15Unique$LT$T$GT$13new_unchecked17h4b4681633042f4edE.llvm.7453466287219170887>
    6659:	48 89 da             	mov    %rbx,%rdx
    665c:	5b                   	pop    %rbx
    665d:	c3                   	retq   
    665e:	66 90                	xchg   %ax,%ax

0000000000006660 <_ZN66_$LT$alloc..vec..Vec$LT$T$GT$$u20$as$u20$core..ops..drop..Drop$GT$4drop17hca11aa0c49ce2fd9E>:
    6660:	50                   	push   %rax
    6661:	e8 6a ff ff ff       	callq  65d0 <_ZN5alloc3vec12Vec$LT$T$GT$10as_mut_ptr17h6f553574f54dff07E.llvm.7453466287219170887>
    6666:	58                   	pop    %rax
    6667:	c3                   	retq   
    6668:	0f 1f 84 00 00 00 00 	nopl   0x0(%rax,%rax,1)
    666f:	00 

0000000000006670 <_ZN68_$LT$alloc..vec..Vec$LT$T$GT$$u20$as$u20$core..ops..deref..Deref$GT$5deref17hc0320634cf06671eE>:
    6670:	53                   	push   %rbx
    6671:	48 89 fb             	mov    %rdi,%rbx
    6674:	e8 77 ff ff ff       	callq  65f0 <_ZN5alloc3vec12Vec$LT$T$GT$6as_ptr17h57960c2ce5354a51E.llvm.7453466287219170887>
    6679:	48 8b 73 10          	mov    0x10(%rbx),%rsi
    667d:	48 89 c7             	mov    %rax,%rdi
    6680:	e8 3b ff ff ff       	callq  65c0 <_ZN4core5slice14from_raw_parts17hc36aacb3330d9a5eE.llvm.7453466287219170887>
    6685:	5b                   	pop    %rbx
    6686:	c3                   	retq   
    6687:	66 0f 1f 84 00 00 00 	nopw   0x0(%rax,%rax,1)
    668e:	00 00 

0000000000006690 <_ZN70_$LT$core..option..Option$LT$T$GT$$u20$as$u20$core..cmp..PartialEq$GT$2eq17hb17c23eab9ad3954E>:
    6690:	50                   	push   %rax
    6691:	48 8b 17             	mov    (%rdi),%rdx
    6694:	48 8b 0e             	mov    (%rsi),%rcx
    6697:	48 39 ca             	cmp    %rcx,%rdx
    669a:	75 1b                	jne    66b7 <_ZN70_$LT$core..option..Option$LT$T$GT$$u20$as$u20$core..cmp..PartialEq$GT$2eq17hb17c23eab9ad3954E+0x27>
    669c:	b0 01                	mov    $0x1,%al
    669e:	48 85 d2             	test   %rdx,%rdx
    66a1:	74 12                	je     66b5 <_ZN70_$LT$core..option..Option$LT$T$GT$$u20$as$u20$core..cmp..PartialEq$GT$2eq17hb17c23eab9ad3954E+0x25>
    66a3:	48 85 c9             	test   %rcx,%rcx
    66a6:	74 0d                	je     66b5 <_ZN70_$LT$core..option..Option$LT$T$GT$$u20$as$u20$core..cmp..PartialEq$GT$2eq17hb17c23eab9ad3954E+0x25>
    66a8:	48 83 c7 08          	add    $0x8,%rdi
    66ac:	48 83 c6 08          	add    $0x8,%rsi
    66b0:	e8 ab fc ff ff       	callq  6360 <_ZN4core3cmp5impls56_$LT$impl$u20$core..cmp..PartialEq$u20$for$u20$usize$GT$2eq17h4e8dea007bd74542E>
    66b5:	59                   	pop    %rcx
    66b6:	c3                   	retq   
    66b7:	31 c0                	xor    %eax,%eax
    66b9:	59                   	pop    %rcx
    66ba:	c3                   	retq   
    66bb:	0f 1f 44 00 00       	nopl   0x0(%rax,%rax,1)

00000000000066c0 <_ZN71_$LT$alloc..vec..IntoIter$LT$T$GT$$u20$as$u20$core..ops..drop..Drop$GT$4drop17h9126ea530dc9f1d4E>:
    66c0:	53                   	push   %rbx
    66c1:	48 83 ec 10          	sub    $0x10,%rsp
    66c5:	48 89 7c 24 08       	mov    %rdi,0x8(%rsp)
    66ca:	e8 41 ff ff ff       	callq  6610 <_ZN5alloc3vec17IntoIter$LT$T$GT$16as_raw_mut_slice17hef30baafa0f8ab07E.llvm.7453466287219170887>
    66cf:	48 89 c7             	mov    %rax,%rdi
    66d2:	48 89 d6             	mov    %rdx,%rsi
    66d5:	e8 26 fd ff ff       	callq  6400 <_ZN4core3ptr13drop_in_place17ha51e2a8f026350ccE.llvm.7453466287219170887>
    66da:	48 8d 7c 24 08       	lea    0x8(%rsp),%rdi
    66df:	e8 bc fc ff ff       	callq  63a0 <_ZN4core3ptr13drop_in_place17h1610190ffb163a37E.llvm.7453466287219170887>
    66e4:	48 83 c4 10          	add    $0x10,%rsp
    66e8:	5b                   	pop    %rbx
    66e9:	c3                   	retq   
    66ea:	48 89 c3             	mov    %rax,%rbx
    66ed:	48 8d 7c 24 08       	lea    0x8(%rsp),%rdi
    66f2:	e8 a9 fc ff ff       	callq  63a0 <_ZN4core3ptr13drop_in_place17h1610190ffb163a37E.llvm.7453466287219170887>
    66f7:	48 89 df             	mov    %rbx,%rdi
    66fa:	e8 81 f9 ff ff       	callq  6080 <_Unwind_Resume@plt>
    66ff:	0f 0b                	ud2    
    6701:	66 2e 0f 1f 84 00 00 	nopw   %cs:0x0(%rax,%rax,1)
    6708:	00 00 00 
    670b:	0f 1f 44 00 00       	nopl   0x0(%rax,%rax,1)

0000000000006710 <_ZN83_$LT$$RF$mut$u20$I$u20$as$u20$core..iter..traits..exact_size..ExactSizeIterator$GT$3len17he93420aee7b9be49E.llvm.7453466287219170887>:
    6710:	50                   	push   %rax
    6711:	48 8b 3f             	mov    (%rdi),%rdi
    6714:	e8 d7 fd ff ff       	callq  64f0 <_ZN4core4iter6traits10exact_size17ExactSizeIterator3len17h65ad0cc45a5881e1E.llvm.7453466287219170887>
    6719:	59                   	pop    %rcx
    671a:	c3                   	retq   
    671b:	0f 1f 44 00 00       	nopl   0x0(%rax,%rax,1)

0000000000006720 <_ZN88_$LT$alloc..vec..IntoIter$LT$T$GT$$u20$as$u20$core..iter..traits..iterator..Iterator$GT$9size_hint17he4c0d96c06b3a868E>:
    6720:	53                   	push   %rbx
    6721:	48 89 fb             	mov    %rdi,%rbx
    6724:	48 8b 46 10          	mov    0x10(%rsi),%rax
    6728:	48 8b 7e 18          	mov    0x18(%rsi),%rdi
    672c:	48 89 c6             	mov    %rax,%rsi
    672f:	e8 9c fd ff ff       	callq  64d0 <_ZN4core3ptr9const_ptr33_$LT$impl$u20$$BP$const$u20$T$GT$11offset_from17h5655890ae903fad8E>
    6734:	48 89 03             	mov    %rax,(%rbx)
    6737:	48 c7 43 08 01 00 00 	movq   $0x1,0x8(%rbx)
    673e:	00 
    673f:	48 89 43 10          	mov    %rax,0x10(%rbx)
    6743:	48 89 d8             	mov    %rbx,%rax
    6746:	5b                   	pop    %rbx
    6747:	c3                   	retq   
    6748:	0f 1f 84 00 00 00 00 	nopl   0x0(%rax,%rax,1)
    674f:	00 

0000000000006750 <_ZN42_$LT$$RF$T$u20$as$u20$core..fmt..Debug$GT$3fmt17h7bc0c808fcdb7de2E>:
    6750:	50                   	push   %rax
    6751:	48 8b 3f             	mov    (%rdi),%rdi
    6754:	e8 17 00 00 00       	callq  6770 <_ZN66_$LT$core..option..Option$LT$T$GT$$u20$as$u20$core..fmt..Debug$GT$3fmt17h1e0a61028a45eb37E>
    6759:	59                   	pop    %rcx
    675a:	c3                   	retq   
    675b:	0f 1f 44 00 00       	nopl   0x0(%rax,%rax,1)

0000000000006760 <_ZN4core3ptr13drop_in_place17h1be61552c987439aE>:
    6760:	c3                   	retq   
    6761:	66 2e 0f 1f 84 00 00 	nopw   %cs:0x0(%rax,%rax,1)
    6768:	00 00 00 
    676b:	0f 1f 44 00 00       	nopl   0x0(%rax,%rax,1)

0000000000006770 <_ZN66_$LT$core..option..Option$LT$T$GT$$u20$as$u20$core..fmt..Debug$GT$3fmt17h1e0a61028a45eb37E>:
    6770:	41 56                	push   %r14
    6772:	53                   	push   %rbx
    6773:	48 83 ec 28          	sub    $0x28,%rsp
    6777:	83 3f 01             	cmpl   $0x1,(%rdi)
    677a:	75 40                	jne    67bc <_ZN66_$LT$core..option..Option$LT$T$GT$$u20$as$u20$core..fmt..Debug$GT$3fmt17h1e0a61028a45eb37E+0x4c>
    677c:	48 89 fb             	mov    %rdi,%rbx
    677f:	48 83 c3 08          	add    $0x8,%rbx
    6783:	48 8d 15 01 19 03 00 	lea    0x31901(%rip),%rdx        # 3808b <_fini+0x8cf>
    678a:	4c 8d 74 24 10       	lea    0x10(%rsp),%r14
    678f:	b9 04 00 00 00       	mov    $0x4,%ecx
    6794:	4c 89 f7             	mov    %r14,%rdi
    6797:	ff 15 6b 27 04 00    	callq  *0x4276b(%rip)        # 48f08 <_GLOBAL_OFFSET_TABLE_+0x5c0>
    679d:	48 89 5c 24 08       	mov    %rbx,0x8(%rsp)
    67a2:	48 8d 15 0f fd 03 00 	lea    0x3fd0f(%rip),%rdx        # 464b8 <anon.14c24cb995e3d6e38322ebd61970439a.0.llvm.3793478678705122716+0x78>
    67a9:	48 8d 74 24 08       	lea    0x8(%rsp),%rsi
    67ae:	4c 89 f7             	mov    %r14,%rdi
    67b1:	ff 15 a1 22 04 00    	callq  *0x422a1(%rip)        # 48a58 <_GLOBAL_OFFSET_TABLE_+0x110>
    67b7:	4c 89 f7             	mov    %r14,%rdi
    67ba:	eb 1d                	jmp    67d9 <_ZN66_$LT$core..option..Option$LT$T$GT$$u20$as$u20$core..fmt..Debug$GT$3fmt17h1e0a61028a45eb37E+0x69>
    67bc:	48 8d 15 cc 18 03 00 	lea    0x318cc(%rip),%rdx        # 3808f <_fini+0x8d3>
    67c3:	48 8d 5c 24 10       	lea    0x10(%rsp),%rbx
    67c8:	b9 04 00 00 00       	mov    $0x4,%ecx
    67cd:	48 89 df             	mov    %rbx,%rdi
    67d0:	ff 15 32 27 04 00    	callq  *0x42732(%rip)        # 48f08 <_GLOBAL_OFFSET_TABLE_+0x5c0>
    67d6:	48 89 df             	mov    %rbx,%rdi
    67d9:	ff 15 19 25 04 00    	callq  *0x42519(%rip)        # 48cf8 <_GLOBAL_OFFSET_TABLE_+0x3b0>
    67df:	48 83 c4 28          	add    $0x28,%rsp
    67e3:	5b                   	pop    %rbx
    67e4:	41 5e                	pop    %r14
    67e6:	c3                   	retq   
    67e7:	66 0f 1f 84 00 00 00 	nopw   0x0(%rax,%rax,1)
    67ee:	00 00 

00000000000067f0 <_ZN4core3num12NonZeroUsize13new_unchecked17h7e1a9de7cbd3f035E.llvm.18282244950952181914>:
    67f0:	48 89 f8             	mov    %rdi,%rax
    67f3:	c3                   	retq   
    67f4:	66 2e 0f 1f 84 00 00 	nopw   %cs:0x0(%rax,%rax,1)
    67fb:	00 00 00 
    67fe:	66 90                	xchg   %ax,%ax

0000000000006800 <_ZN4core3num12NonZeroUsize3get17h6a2aea648165316cE.llvm.18282244950952181914>:
    6800:	48 89 f8             	mov    %rdi,%rax
    6803:	c3                   	retq   
    6804:	66 2e 0f 1f 84 00 00 	nopw   %cs:0x0(%rax,%rax,1)
    680b:	00 00 00 
    680e:	66 90                	xchg   %ax,%ax

0000000000006810 <_ZN4core3ptr6unique15Unique$LT$T$GT$13new_unchecked17h37503726ffd25227E.llvm.18282244950952181914>:
    6810:	48 89 f8             	mov    %rdi,%rax
    6813:	c3                   	retq   
    6814:	66 2e 0f 1f 84 00 00 	nopw   %cs:0x0(%rax,%rax,1)
    681b:	00 00 00 
    681e:	66 90                	xchg   %ax,%ax

0000000000006820 <_ZN4core3ptr6unique15Unique$LT$T$GT$4cast17h77300219ece52ca0E.llvm.18282244950952181914>:
    6820:	50                   	push   %rax
    6821:	e8 2a 00 00 00       	callq  6850 <_ZN4core3ptr6unique15Unique$LT$T$GT$6as_ptr17hddc9675907725e62E.llvm.18282244950952181914>
    6826:	48 89 c7             	mov    %rax,%rdi
    6829:	e8 e2 ff ff ff       	callq  6810 <_ZN4core3ptr6unique15Unique$LT$T$GT$13new_unchecked17h37503726ffd25227E.llvm.18282244950952181914>
    682e:	59                   	pop    %rcx
    682f:	c3                   	retq   

0000000000006830 <_ZN4core3ptr6unique15Unique$LT$T$GT$4cast17hb96c072d634e0b38E.llvm.18282244950952181914>:
    6830:	50                   	push   %rax
    6831:	e8 0a 00 00 00       	callq  6840 <_ZN4core3ptr6unique15Unique$LT$T$GT$6as_ptr17hd611519b788a69c8E.llvm.18282244950952181914>
    6836:	48 89 c7             	mov    %rax,%rdi
    6839:	e8 d2 ff ff ff       	callq  6810 <_ZN4core3ptr6unique15Unique$LT$T$GT$13new_unchecked17h37503726ffd25227E.llvm.18282244950952181914>
    683e:	59                   	pop    %rcx
    683f:	c3                   	retq   

0000000000006840 <_ZN4core3ptr6unique15Unique$LT$T$GT$6as_ptr17hd611519b788a69c8E.llvm.18282244950952181914>:
    6840:	48 89 f8             	mov    %rdi,%rax
    6843:	c3                   	retq   
    6844:	66 2e 0f 1f 84 00 00 	nopw   %cs:0x0(%rax,%rax,1)
    684b:	00 00 00 
    684e:	66 90                	xchg   %ax,%ax

0000000000006850 <_ZN4core3ptr6unique15Unique$LT$T$GT$6as_ptr17hddc9675907725e62E.llvm.18282244950952181914>:
    6850:	48 89 f8             	mov    %rdi,%rax
    6853:	c3                   	retq   
    6854:	66 2e 0f 1f 84 00 00 	nopw   %cs:0x0(%rax,%rax,1)
    685b:	00 00 00 
    685e:	66 90                	xchg   %ax,%ax

0000000000006860 <_ZN4core3ptr8non_null16NonNull$LT$T$GT$6as_ptr17h753ffcbb1ddd4645E.llvm.18282244950952181914>:
    6860:	48 89 f8             	mov    %rdi,%rax
    6863:	c3                   	retq   
    6864:	66 2e 0f 1f 84 00 00 	nopw   %cs:0x0(%rax,%rax,1)
    686b:	00 00 00 
    686e:	66 90                	xchg   %ax,%ax

0000000000006870 <_ZN4core5alloc6layout6Layout25from_size_align_unchecked17hb0016489986173e8E.llvm.18282244950952181914>:
    6870:	53                   	push   %rbx
    6871:	48 89 fb             	mov    %rdi,%rbx
    6874:	48 89 f7             	mov    %rsi,%rdi
    6877:	e8 74 ff ff ff       	callq  67f0 <_ZN4core3num12NonZeroUsize13new_unchecked17h7e1a9de7cbd3f035E.llvm.18282244950952181914>
    687c:	48 89 c2             	mov    %rax,%rdx
    687f:	48 89 d8             	mov    %rbx,%rax
    6882:	5b                   	pop    %rbx
    6883:	c3                   	retq   
    6884:	66 2e 0f 1f 84 00 00 	nopw   %cs:0x0(%rax,%rax,1)
    688b:	00 00 00 
    688e:	66 90                	xchg   %ax,%ax

0000000000006890 <_ZN4core5alloc6layout6Layout4size17h70940bfd0e3c49a0E.llvm.18282244950952181914>:
    6890:	48 8b 07             	mov    (%rdi),%rax
    6893:	c3                   	retq   
    6894:	66 2e 0f 1f 84 00 00 	nopw   %cs:0x0(%rax,%rax,1)
    689b:	00 00 00 
    689e:	66 90                	xchg   %ax,%ax

00000000000068a0 <_ZN4core5alloc6layout6Layout5align17hc7f0df6deda75cedE.llvm.18282244950952181914>:
    68a0:	50                   	push   %rax
    68a1:	48 8b 7f 08          	mov    0x8(%rdi),%rdi
    68a5:	e8 56 ff ff ff       	callq  6800 <_ZN4core3num12NonZeroUsize3get17h6a2aea648165316cE.llvm.18282244950952181914>
    68aa:	59                   	pop    %rcx
    68ab:	c3                   	retq   
    68ac:	0f 1f 40 00          	nopl   0x0(%rax)

00000000000068b0 <_ZN5alloc5alloc7dealloc17hc7860f287741b763E.llvm.18282244950952181914>:
    68b0:	41 57                	push   %r15
    68b2:	41 56                	push   %r14
    68b4:	53                   	push   %rbx
    68b5:	48 83 ec 10          	sub    $0x10,%rsp
    68b9:	49 89 ff             	mov    %rdi,%r15
    68bc:	48 89 34 24          	mov    %rsi,(%rsp)
    68c0:	48 89 54 24 08       	mov    %rdx,0x8(%rsp)
    68c5:	49 89 e6             	mov    %rsp,%r14
    68c8:	4c 89 f7             	mov    %r14,%rdi
    68cb:	e8 c0 ff ff ff       	callq  6890 <_ZN4core5alloc6layout6Layout4size17h70940bfd0e3c49a0E.llvm.18282244950952181914>
    68d0:	48 89 c3             	mov    %rax,%rbx
    68d3:	4c 89 f7             	mov    %r14,%rdi
    68d6:	e8 c5 ff ff ff       	callq  68a0 <_ZN4core5alloc6layout6Layout5align17hc7f0df6deda75cedE.llvm.18282244950952181914>
    68db:	4c 89 ff             	mov    %r15,%rdi
    68de:	48 89 de             	mov    %rbx,%rsi
    68e1:	48 89 c2             	mov    %rax,%rdx
    68e4:	ff 15 ee 22 04 00    	callq  *0x422ee(%rip)        # 48bd8 <_GLOBAL_OFFSET_TABLE_+0x290>
    68ea:	48 83 c4 10          	add    $0x10,%rsp
    68ee:	5b                   	pop    %rbx
    68ef:	41 5e                	pop    %r14
    68f1:	41 5f                	pop    %r15
    68f3:	c3                   	retq   
    68f4:	66 2e 0f 1f 84 00 00 	nopw   %cs:0x0(%rax,%rax,1)
    68fb:	00 00 00 
    68fe:	66 90                	xchg   %ax,%ax

0000000000006900 <_ZN5alloc7raw_vec19RawVec$LT$T$C$A$GT$14current_memory17h6265870932572505E.llvm.18282244950952181914>:
    6900:	41 57                	push   %r15
    6902:	41 56                	push   %r14
    6904:	41 54                	push   %r12
    6906:	53                   	push   %rbx
    6907:	50                   	push   %rax
    6908:	48 89 fb             	mov    %rdi,%rbx
    690b:	48 8b 7e 08          	mov    0x8(%rsi),%rdi
    690f:	48 85 ff             	test   %rdi,%rdi
    6912:	74 30                	je     6944 <_ZN5alloc7raw_vec19RawVec$LT$T$C$A$GT$14current_memory17h6265870932572505E.llvm.18282244950952181914+0x44>
    6914:	49 89 f6             	mov    %rsi,%r14
    6917:	be 01 00 00 00       	mov    $0x1,%esi
    691c:	e8 4f ff ff ff       	callq  6870 <_ZN4core5alloc6layout6Layout25from_size_align_unchecked17hb0016489986173e8E.llvm.18282244950952181914>
    6921:	49 89 c7             	mov    %rax,%r15
    6924:	49 89 d4             	mov    %rdx,%r12
    6927:	49 8b 3e             	mov    (%r14),%rdi
    692a:	e8 01 ff ff ff       	callq  6830 <_ZN4core3ptr6unique15Unique$LT$T$GT$4cast17hb96c072d634e0b38E.llvm.18282244950952181914>
    692f:	48 89 c7             	mov    %rax,%rdi
    6932:	e8 39 f9 ff ff       	callq  6270 <_ZN50_$LT$T$u20$as$u20$core..convert..Into$LT$U$GT$$GT$4into17hf49a1276d6c4dbf8E>
    6937:	48 89 03             	mov    %rax,(%rbx)
    693a:	4c 89 7b 08          	mov    %r15,0x8(%rbx)
    693e:	4c 89 63 10          	mov    %r12,0x10(%rbx)
    6942:	eb 07                	jmp    694b <_ZN5alloc7raw_vec19RawVec$LT$T$C$A$GT$14current_memory17h6265870932572505E.llvm.18282244950952181914+0x4b>
    6944:	48 c7 03 00 00 00 00 	movq   $0x0,(%rbx)
    694b:	48 89 d8             	mov    %rbx,%rax
    694e:	48 83 c4 08          	add    $0x8,%rsp
    6952:	5b                   	pop    %rbx
    6953:	41 5c                	pop    %r12
    6955:	41 5e                	pop    %r14
    6957:	41 5f                	pop    %r15
    6959:	c3                   	retq   
    695a:	66 0f 1f 44 00 00    	nopw   0x0(%rax,%rax,1)

0000000000006960 <_ZN5alloc7raw_vec19RawVec$LT$T$C$A$GT$14current_memory17hcb4f17a4624d56d3E.llvm.18282244950952181914>:
    6960:	41 57                	push   %r15
    6962:	41 56                	push   %r14
    6964:	41 54                	push   %r12
    6966:	53                   	push   %rbx
    6967:	50                   	push   %rax
    6968:	48 89 fb             	mov    %rdi,%rbx
    696b:	48 8b 46 08          	mov    0x8(%rsi),%rax
    696f:	48 85 c0             	test   %rax,%rax
    6972:	74 38                	je     69ac <_ZN5alloc7raw_vec19RawVec$LT$T$C$A$GT$14current_memory17hcb4f17a4624d56d3E.llvm.18282244950952181914+0x4c>
    6974:	49 89 f6             	mov    %rsi,%r14
    6977:	48 c1 e0 03          	shl    $0x3,%rax
    697b:	48 8d 3c 40          	lea    (%rax,%rax,2),%rdi
    697f:	be 08 00 00 00       	mov    $0x8,%esi
    6984:	e8 e7 fe ff ff       	callq  6870 <_ZN4core5alloc6layout6Layout25from_size_align_unchecked17hb0016489986173e8E.llvm.18282244950952181914>
    6989:	49 89 c7             	mov    %rax,%r15
    698c:	49 89 d4             	mov    %rdx,%r12
    698f:	49 8b 3e             	mov    (%r14),%rdi
    6992:	e8 89 fe ff ff       	callq  6820 <_ZN4core3ptr6unique15Unique$LT$T$GT$4cast17h77300219ece52ca0E.llvm.18282244950952181914>
    6997:	48 89 c7             	mov    %rax,%rdi
    699a:	e8 d1 f8 ff ff       	callq  6270 <_ZN50_$LT$T$u20$as$u20$core..convert..Into$LT$U$GT$$GT$4into17hf49a1276d6c4dbf8E>
    699f:	48 89 03             	mov    %rax,(%rbx)
    69a2:	4c 89 7b 08          	mov    %r15,0x8(%rbx)
    69a6:	4c 89 63 10          	mov    %r12,0x10(%rbx)
    69aa:	eb 07                	jmp    69b3 <_ZN5alloc7raw_vec19RawVec$LT$T$C$A$GT$14current_memory17hcb4f17a4624d56d3E.llvm.18282244950952181914+0x53>
    69ac:	48 c7 03 00 00 00 00 	movq   $0x0,(%rbx)
    69b3:	48 89 d8             	mov    %rbx,%rax
    69b6:	48 83 c4 08          	add    $0x8,%rsp
    69ba:	5b                   	pop    %rbx
    69bb:	41 5c                	pop    %r12
    69bd:	41 5e                	pop    %r14
    69bf:	41 5f                	pop    %r15
    69c1:	c3                   	retq   
    69c2:	66 2e 0f 1f 84 00 00 	nopw   %cs:0x0(%rax,%rax,1)
    69c9:	00 00 00 
    69cc:	0f 1f 40 00          	nopl   0x0(%rax)

00000000000069d0 <_ZN5alloc7raw_vec19RawVec$LT$T$C$A$GT$3ptr17hf732747f8a681c07E>:
    69d0:	50                   	push   %rax
    69d1:	48 8b 3f             	mov    (%rdi),%rdi
    69d4:	e8 67 fe ff ff       	callq  6840 <_ZN4core3ptr6unique15Unique$LT$T$GT$6as_ptr17hd611519b788a69c8E.llvm.18282244950952181914>
    69d9:	59                   	pop    %rcx
    69da:	c3                   	retq   
    69db:	0f 1f 44 00 00       	nopl   0x0(%rax,%rax,1)

00000000000069e0 <_ZN62_$LT$alloc..alloc..Global$u20$as$u20$core..alloc..AllocRef$GT$7dealloc17h6fe1b55bb31d86e7E.llvm.18282244950952181914>:
    69e0:	41 57                	push   %r15
    69e2:	41 56                	push   %r14
    69e4:	53                   	push   %rbx
    69e5:	48 83 ec 10          	sub    $0x10,%rsp
    69e9:	49 89 d6             	mov    %rdx,%r14
    69ec:	48 89 f3             	mov    %rsi,%rbx
    69ef:	49 89 ff             	mov    %rdi,%r15
    69f2:	48 89 34 24          	mov    %rsi,(%rsp)
    69f6:	48 89 54 24 08       	mov    %rdx,0x8(%rsp)
    69fb:	48 89 e7             	mov    %rsp,%rdi
    69fe:	e8 8d fe ff ff       	callq  6890 <_ZN4core5alloc6layout6Layout4size17h70940bfd0e3c49a0E.llvm.18282244950952181914>
    6a03:	48 85 c0             	test   %rax,%rax
    6a06:	74 16                	je     6a1e <_ZN62_$LT$alloc..alloc..Global$u20$as$u20$core..alloc..AllocRef$GT$7dealloc17h6fe1b55bb31d86e7E.llvm.18282244950952181914+0x3e>
    6a08:	4c 89 ff             	mov    %r15,%rdi
    6a0b:	e8 50 fe ff ff       	callq  6860 <_ZN4core3ptr8non_null16NonNull$LT$T$GT$6as_ptr17h753ffcbb1ddd4645E.llvm.18282244950952181914>
    6a10:	48 89 c7             	mov    %rax,%rdi
    6a13:	48 89 de             	mov    %rbx,%rsi
    6a16:	4c 89 f2             	mov    %r14,%rdx
    6a19:	e8 92 fe ff ff       	callq  68b0 <_ZN5alloc5alloc7dealloc17hc7860f287741b763E.llvm.18282244950952181914>
    6a1e:	48 83 c4 10          	add    $0x10,%rsp
    6a22:	5b                   	pop    %rbx
    6a23:	41 5e                	pop    %r14
    6a25:	41 5f                	pop    %r15
    6a27:	c3                   	retq   
    6a28:	0f 1f 84 00 00 00 00 	nopl   0x0(%rax,%rax,1)
    6a2f:	00 

0000000000006a30 <_ZN77_$LT$alloc..raw_vec..RawVec$LT$T$C$A$GT$$u20$as$u20$core..ops..drop..Drop$GT$4drop17h95e3c74ff75d3848E>:
    6a30:	48 83 ec 18          	sub    $0x18,%rsp
    6a34:	48 89 fe             	mov    %rdi,%rsi
    6a37:	48 89 e7             	mov    %rsp,%rdi
    6a3a:	e8 c1 fe ff ff       	callq  6900 <_ZN5alloc7raw_vec19RawVec$LT$T$C$A$GT$14current_memory17h6265870932572505E.llvm.18282244950952181914>
    6a3f:	48 83 3c 24 00       	cmpq   $0x0,(%rsp)
    6a44:	74 13                	je     6a59 <_ZN77_$LT$alloc..raw_vec..RawVec$LT$T$C$A$GT$$u20$as$u20$core..ops..drop..Drop$GT$4drop17h95e3c74ff75d3848E+0x29>
    6a46:	48 8b 3c 24          	mov    (%rsp),%rdi
    6a4a:	48 8b 74 24 08       	mov    0x8(%rsp),%rsi
    6a4f:	48 8b 54 24 10       	mov    0x10(%rsp),%rdx
    6a54:	e8 87 ff ff ff       	callq  69e0 <_ZN62_$LT$alloc..alloc..Global$u20$as$u20$core..alloc..AllocRef$GT$7dealloc17h6fe1b55bb31d86e7E.llvm.18282244950952181914>
    6a59:	48 83 c4 18          	add    $0x18,%rsp
    6a5d:	c3                   	retq   
    6a5e:	66 90                	xchg   %ax,%ax

0000000000006a60 <_ZN77_$LT$alloc..raw_vec..RawVec$LT$T$C$A$GT$$u20$as$u20$core..ops..drop..Drop$GT$4drop17he5e417221ba05df3E>:
    6a60:	48 83 ec 18          	sub    $0x18,%rsp
    6a64:	48 89 fe             	mov    %rdi,%rsi
    6a67:	48 89 e7             	mov    %rsp,%rdi
    6a6a:	e8 f1 fe ff ff       	callq  6960 <_ZN5alloc7raw_vec19RawVec$LT$T$C$A$GT$14current_memory17hcb4f17a4624d56d3E.llvm.18282244950952181914>
    6a6f:	48 83 3c 24 00       	cmpq   $0x0,(%rsp)
    6a74:	74 13                	je     6a89 <_ZN77_$LT$alloc..raw_vec..RawVec$LT$T$C$A$GT$$u20$as$u20$core..ops..drop..Drop$GT$4drop17he5e417221ba05df3E+0x29>
    6a76:	48 8b 3c 24          	mov    (%rsp),%rdi
    6a7a:	48 8b 74 24 08       	mov    0x8(%rsp),%rsi
    6a7f:	48 8b 54 24 10       	mov    0x10(%rsp),%rdx
    6a84:	e8 57 ff ff ff       	callq  69e0 <_ZN62_$LT$alloc..alloc..Global$u20$as$u20$core..alloc..AllocRef$GT$7dealloc17h6fe1b55bb31d86e7E.llvm.18282244950952181914>
    6a89:	48 83 c4 18          	add    $0x18,%rsp
    6a8d:	c3                   	retq   
    6a8e:	66 90                	xchg   %ax,%ax

0000000000006a90 <_ZN4core3fmt9Arguments6new_v117h52332ad64d40bfe2E>:
    6a90:	48 89 f8             	mov    %rdi,%rax
    6a93:	48 8d 0d 3e fa 03 00 	lea    0x3fa3e(%rip),%rcx        # 464d8 <anon.14c24cb995e3d6e38322ebd61970439a.0.llvm.3793478678705122716+0x98>
    6a9a:	48 89 0f             	mov    %rcx,(%rdi)
    6a9d:	48 c7 47 08 02 00 00 	movq   $0x2,0x8(%rdi)
    6aa4:	00 
    6aa5:	48 c7 47 10 00 00 00 	movq   $0x0,0x10(%rdi)
    6aac:	00 
    6aad:	48 89 77 20          	mov    %rsi,0x20(%rdi)
    6ab1:	48 c7 47 28 01 00 00 	movq   $0x1,0x28(%rdi)
    6ab8:	00 
    6ab9:	c3                   	retq   
    6aba:	66 0f 1f 44 00 00    	nopw   0x0(%rax,%rax,1)

0000000000006ac0 <_ZN4core3ptr13drop_in_place17h5b1281e80eec5e2bE>:
    6ac0:	50                   	push   %rax
    6ac1:	e8 4a 00 00 00       	callq  6b10 <_ZN4core3ptr13drop_in_place17h702782d5418e68fbE>
    6ac6:	58                   	pop    %rax
    6ac7:	c3                   	retq   
    6ac8:	0f 1f 84 00 00 00 00 	nopl   0x0(%rax,%rax,1)
    6acf:	00 

0000000000006ad0 <_ZN4core3ptr13drop_in_place17h6d36eed22ebaee2dE>:
    6ad0:	41 56                	push   %r14
    6ad2:	53                   	push   %rbx
    6ad3:	50                   	push   %rax
    6ad4:	48 89 fb             	mov    %rdi,%rbx
    6ad7:	e8 84 fb ff ff       	callq  6660 <_ZN66_$LT$alloc..vec..Vec$LT$T$GT$$u20$as$u20$core..ops..drop..Drop$GT$4drop17hca11aa0c49ce2fd9E>
    6adc:	48 89 df             	mov    %rbx,%rdi
    6adf:	e8 6c 00 00 00       	callq  6b50 <_ZN4core3ptr13drop_in_place17he0104d388fb82ceeE>
    6ae4:	48 83 c4 08          	add    $0x8,%rsp
    6ae8:	5b                   	pop    %rbx
    6ae9:	41 5e                	pop    %r14
    6aeb:	c3                   	retq   
    6aec:	49 89 c6             	mov    %rax,%r14
    6aef:	48 89 df             	mov    %rbx,%rdi
    6af2:	e8 59 00 00 00       	callq  6b50 <_ZN4core3ptr13drop_in_place17he0104d388fb82ceeE>
    6af7:	4c 89 f7             	mov    %r14,%rdi
    6afa:	e8 81 f5 ff ff       	callq  6080 <_Unwind_Resume@plt>
    6aff:	0f 0b                	ud2    
    6b01:	66 2e 0f 1f 84 00 00 	nopw   %cs:0x0(%rax,%rax,1)
    6b08:	00 00 00 
    6b0b:	0f 1f 44 00 00       	nopl   0x0(%rax,%rax,1)

0000000000006b10 <_ZN4core3ptr13drop_in_place17h702782d5418e68fbE>:
    6b10:	50                   	push   %rax
    6b11:	e8 2a 00 00 00       	callq  6b40 <_ZN4core3ptr13drop_in_place17hd192642d307d3c02E>
    6b16:	58                   	pop    %rax
    6b17:	c3                   	retq   
    6b18:	0f 1f 84 00 00 00 00 	nopl   0x0(%rax,%rax,1)
    6b1f:	00 

0000000000006b20 <_ZN4core3ptr13drop_in_place17h78703b79975647a2E>:
    6b20:	50                   	push   %rax
    6b21:	e8 9a fb ff ff       	callq  66c0 <_ZN71_$LT$alloc..vec..IntoIter$LT$T$GT$$u20$as$u20$core..ops..drop..Drop$GT$4drop17h9126ea530dc9f1d4E>
    6b26:	58                   	pop    %rax
    6b27:	c3                   	retq   
    6b28:	0f 1f 84 00 00 00 00 	nopl   0x0(%rax,%rax,1)
    6b2f:	00 

0000000000006b30 <_ZN4core3ptr13drop_in_place17h9d6738490598f97fE>:
    6b30:	50                   	push   %rax
    6b31:	e8 9a ff ff ff       	callq  6ad0 <_ZN4core3ptr13drop_in_place17h6d36eed22ebaee2dE>
    6b36:	58                   	pop    %rax
    6b37:	c3                   	retq   
    6b38:	0f 1f 84 00 00 00 00 	nopl   0x0(%rax,%rax,1)
    6b3f:	00 

0000000000006b40 <_ZN4core3ptr13drop_in_place17hd192642d307d3c02E>:
    6b40:	50                   	push   %rax
    6b41:	e8 da ff ff ff       	callq  6b20 <_ZN4core3ptr13drop_in_place17h78703b79975647a2E>
    6b46:	58                   	pop    %rax
    6b47:	c3                   	retq   
    6b48:	0f 1f 84 00 00 00 00 	nopl   0x0(%rax,%rax,1)
    6b4f:	00 

0000000000006b50 <_ZN4core3ptr13drop_in_place17he0104d388fb82ceeE>:
    6b50:	50                   	push   %rax
    6b51:	e8 da fe ff ff       	callq  6a30 <_ZN77_$LT$alloc..raw_vec..RawVec$LT$T$C$A$GT$$u20$as$u20$core..ops..drop..Drop$GT$4drop17h95e3c74ff75d3848E>
    6b56:	58                   	pop    %rax
    6b57:	c3                   	retq   
    6b58:	0f 1f 84 00 00 00 00 	nopl   0x0(%rax,%rax,1)
    6b5f:	00 

0000000000006b60 <_ZN4core3str19from_utf8_unchecked17h60e5790769b03820E>:
    6b60:	48 89 f2             	mov    %rsi,%rdx
    6b63:	48 89 f8             	mov    %rdi,%rax
    6b66:	c3                   	retq   
    6b67:	66 0f 1f 84 00 00 00 	nopw   0x0(%rax,%rax,1)
    6b6e:	00 00 

0000000000006b70 <_ZN4core3str21_$LT$impl$u20$str$GT$5parse17hcde56d0c28e9e403E>:
    6b70:	50                   	push   %rax
    6b71:	ff 15 f9 20 04 00    	callq  *0x420f9(%rip)        # 48c70 <_GLOBAL_OFFSET_TABLE_+0x328>
    6b77:	59                   	pop    %rcx
    6b78:	c3                   	retq   
    6b79:	0f 1f 80 00 00 00 00 	nopl   0x0(%rax)

0000000000006b80 <_ZN65_$LT$alloc..string..String$u20$as$u20$core..ops..deref..Deref$GT$5deref17h63d509ffa9befb3eE>:
    6b80:	50                   	push   %rax
    6b81:	e8 ea fa ff ff       	callq  6670 <_ZN68_$LT$alloc..vec..Vec$LT$T$GT$$u20$as$u20$core..ops..deref..Deref$GT$5deref17hc0320634cf06671eE>
    6b86:	48 89 c7             	mov    %rax,%rdi
    6b89:	48 89 d6             	mov    %rdx,%rsi
    6b8c:	e8 cf ff ff ff       	callq  6b60 <_ZN4core3str19from_utf8_unchecked17h60e5790769b03820E>
    6b91:	59                   	pop    %rcx
    6b92:	c3                   	retq   
    6b93:	66 2e 0f 1f 84 00 00 	nopw   %cs:0x0(%rax,%rax,1)
    6b9a:	00 00 00 
    6b9d:	0f 1f 00             	nopl   (%rax)

0000000000006ba0 <_ZN7example3fib17h40989845736500feE>:
    6ba0:	55                   	push   %rbp
    6ba1:	53                   	push   %rbx
    6ba2:	50                   	push   %rax
    6ba3:	89 fb                	mov    %edi,%ebx
    6ba5:	83 ff 02             	cmp    $0x2,%edi
    6ba8:	7c 18                	jl     6bc2 <_ZN7example3fib17h40989845736500feE+0x22>
    6baa:	8d 7b fe             	lea    -0x2(%rbx),%edi
    6bad:	e8 ee ff ff ff       	callq  6ba0 <_ZN7example3fib17h40989845736500feE>
    6bb2:	89 c5                	mov    %eax,%ebp
    6bb4:	83 c3 ff             	add    $0xffffffff,%ebx
    6bb7:	89 df                	mov    %ebx,%edi
    6bb9:	e8 e2 ff ff ff       	callq  6ba0 <_ZN7example3fib17h40989845736500feE>
    6bbe:	89 c3                	mov    %eax,%ebx
    6bc0:	01 eb                	add    %ebp,%ebx
    6bc2:	89 d8                	mov    %ebx,%eax
    6bc4:	48 83 c4 08          	add    $0x8,%rsp
    6bc8:	5b                   	pop    %rbx
    6bc9:	5d                   	pop    %rbp
    6bca:	c3                   	retq   
    6bcb:	0f 1f 44 00 00       	nopl   0x0(%rax,%rax,1)

0000000000006bd0 <_ZN7example4main17h7d7eff44e45827fdE>:
    6bd0:	55                   	push   %rbp
    6bd1:	41 57                	push   %r15
    6bd3:	41 56                	push   %r14
    6bd5:	41 55                	push   %r13
    6bd7:	41 54                	push   %r12
    6bd9:	53                   	push   %rbx
    6bda:	48 81 ec c8 00 00 00 	sub    $0xc8,%rsp
    6be1:	4c 8d bc 24 98 00 00 	lea    0x98(%rsp),%r15
    6be8:	00 
    6be9:	4c 89 ff             	mov    %r15,%rdi
    6bec:	ff 15 9e 21 04 00    	callq  *0x4219e(%rip)        # 48d90 <_GLOBAL_OFFSET_TABLE_+0x448>
    6bf2:	48 8d 7c 24 60       	lea    0x60(%rsp),%rdi
    6bf7:	4c 89 fe             	mov    %r15,%rsi
    6bfa:	e8 51 01 00 00       	callq  6d50 <_ZN63_$LT$I$u20$as$u20$core..iter..traits..collect..IntoIterator$GT$9into_iter17h05ae62fd1309fffeE>
    6bff:	0f 10 44 24 60       	movups 0x60(%rsp),%xmm0
    6c04:	0f 10 4c 24 70       	movups 0x70(%rsp),%xmm1
    6c09:	0f 29 4c 24 50       	movaps %xmm1,0x50(%rsp)
    6c0e:	0f 29 44 24 40       	movaps %xmm0,0x40(%rsp)
    6c13:	4c 8d 74 24 40       	lea    0x40(%rsp),%r14
    6c18:	4c 8d 25 f1 f3 00 00 	lea    0xf3f1(%rip),%r12        # 16010 <_ZN73_$LT$std..env..Args$u20$as$u20$core..iter..traits..iterator..Iterator$GT$4next17he05dd6a796ebd410E>
    6c1f:	48 8d 5c 24 20       	lea    0x20(%rsp),%rbx
    6c24:	48 8d 6c 24 10       	lea    0x10(%rsp),%rbp
    6c29:	4c 8d 2d 50 0d 01 00 	lea    0x10d50(%rip),%r13        # 17980 <_ZN3std2io5stdio6_print17h74590ce298cc2720E>
    6c30:	eb 16                	jmp    6c48 <_ZN7example4main17h7d7eff44e45827fdE+0x78>
    6c32:	66 2e 0f 1f 84 00 00 	nopw   %cs:0x0(%rax,%rax,1)
    6c39:	00 00 00 
    6c3c:	0f 1f 40 00          	nopl   0x0(%rax)
    6c40:	48 89 df             	mov    %rbx,%rdi
    6c43:	e8 e8 fe ff ff       	callq  6b30 <_ZN4core3ptr13drop_in_place17h9d6738490598f97fE>
    6c48:	4c 89 ff             	mov    %r15,%rdi
    6c4b:	4c 89 f6             	mov    %r14,%rsi
    6c4e:	41 ff d4             	callq  *%r12
    6c51:	48 83 bc 24 98 00 00 	cmpq   $0x0,0x98(%rsp)
    6c58:	00 00 
    6c5a:	0f 84 89 00 00 00    	je     6ce9 <_ZN7example4main17h7d7eff44e45827fdE+0x119>
    6c60:	48 8b 84 24 a8 00 00 	mov    0xa8(%rsp),%rax
    6c67:	00 
    6c68:	48 89 84 24 90 00 00 	mov    %rax,0x90(%rsp)
    6c6f:	00 
    6c70:	0f 10 84 24 98 00 00 	movups 0x98(%rsp),%xmm0
    6c77:	00 
    6c78:	0f 29 84 24 80 00 00 	movaps %xmm0,0x80(%rsp)
    6c7f:	00 
    6c80:	48 89 44 24 30       	mov    %rax,0x30(%rsp)
    6c85:	0f 29 44 24 20       	movaps %xmm0,0x20(%rsp)
    6c8a:	48 89 df             	mov    %rbx,%rdi
    6c8d:	e8 ee fe ff ff       	callq  6b80 <_ZN65_$LT$alloc..string..String$u20$as$u20$core..ops..deref..Deref$GT$5deref17h63d509ffa9befb3eE>
    6c92:	48 89 c7             	mov    %rax,%rdi
    6c95:	48 89 d6             	mov    %rdx,%rsi
    6c98:	e8 d3 fe ff ff       	callq  6b70 <_ZN4core3str21_$LT$impl$u20$str$GT$5parse17hcde56d0c28e9e403E>
    6c9d:	a8 01                	test   $0x1,%al
    6c9f:	75 9f                	jne    6c40 <_ZN7example4main17h7d7eff44e45827fdE+0x70>
    6ca1:	48 c1 e8 20          	shr    $0x20,%rax
    6ca5:	89 c7                	mov    %eax,%edi
    6ca7:	e8 f4 fe ff ff       	callq  6ba0 <_ZN7example3fib17h40989845736500feE>
    6cac:	89 44 24 0c          	mov    %eax,0xc(%rsp)
    6cb0:	48 8d 7c 24 0c       	lea    0xc(%rsp),%rdi
    6cb5:	48 8d 35 d4 fc 02 00 	lea    0x2fcd4(%rip),%rsi        # 36990 <_ZN4core3fmt3num3imp52_$LT$impl$u20$core..fmt..Display$u20$for$u20$i32$GT$3fmt17h87753a9a5e7fa689E>
    6cbc:	e8 ef f4 ff ff       	callq  61b0 <_ZN4core3fmt10ArgumentV13new17haaebda236109e592E>
    6cc1:	48 89 44 24 10       	mov    %rax,0x10(%rsp)
    6cc6:	48 89 54 24 18       	mov    %rdx,0x18(%rsp)
    6ccb:	4c 89 ff             	mov    %r15,%rdi
    6cce:	48 89 ee             	mov    %rbp,%rsi
    6cd1:	e8 ba fd ff ff       	callq  6a90 <_ZN4core3fmt9Arguments6new_v117h52332ad64d40bfe2E>
    6cd6:	4c 89 ff             	mov    %r15,%rdi
    6cd9:	41 ff d5             	callq  *%r13
    6cdc:	48 89 df             	mov    %rbx,%rdi
    6cdf:	e8 4c fe ff ff       	callq  6b30 <_ZN4core3ptr13drop_in_place17h9d6738490598f97fE>
    6ce4:	e9 5f ff ff ff       	jmpq   6c48 <_ZN7example4main17h7d7eff44e45827fdE+0x78>
    6ce9:	48 8d 7c 24 40       	lea    0x40(%rsp),%rdi
    6cee:	e8 cd fd ff ff       	callq  6ac0 <_ZN4core3ptr13drop_in_place17h5b1281e80eec5e2bE>
    6cf3:	48 81 c4 c8 00 00 00 	add    $0xc8,%rsp
    6cfa:	5b                   	pop    %rbx
    6cfb:	41 5c                	pop    %r12
    6cfd:	41 5d                	pop    %r13
    6cff:	41 5e                	pop    %r14
    6d01:	41 5f                	pop    %r15
    6d03:	5d                   	pop    %rbp
    6d04:	c3                   	retq   
    6d05:	48 89 c3             	mov    %rax,%rbx
    6d08:	eb 0d                	jmp    6d17 <_ZN7example4main17h7d7eff44e45827fdE+0x147>
    6d0a:	48 89 c3             	mov    %rax,%rbx
    6d0d:	48 8d 7c 24 20       	lea    0x20(%rsp),%rdi
    6d12:	e8 19 fe ff ff       	callq  6b30 <_ZN4core3ptr13drop_in_place17h9d6738490598f97fE>
    6d17:	48 8d 7c 24 40       	lea    0x40(%rsp),%rdi
    6d1c:	e8 9f fd ff ff       	callq  6ac0 <_ZN4core3ptr13drop_in_place17h5b1281e80eec5e2bE>
    6d21:	48 89 df             	mov    %rbx,%rdi
    6d24:	e8 57 f3 ff ff       	callq  6080 <_Unwind_Resume@plt>
    6d29:	0f 0b                	ud2    
    6d2b:	0f 1f 44 00 00       	nopl   0x0(%rax,%rax,1)

0000000000006d30 <main>:
    6d30:	50                   	push   %rax
    6d31:	48 89 f2             	mov    %rsi,%rdx
    6d34:	8a 05 7f 58 03 00    	mov    0x3587f(%rip),%al        # 3c5b9 <__rustc_debug_gdb_scripts_section__>
    6d3a:	48 63 f7             	movslq %edi,%rsi
    6d3d:	48 8d 3d 8c fe ff ff 	lea    -0x174(%rip),%rdi        # 6bd0 <_ZN7example4main17h7d7eff44e45827fdE>
    6d44:	e8 37 f5 ff ff       	callq  6280 <_ZN3std2rt10lang_start17h0f76dfa69d165b3fE>
    6d49:	59                   	pop    %rcx
    6d4a:	c3                   	retq   
    6d4b:	0f 1f 44 00 00       	nopl   0x0(%rax,%rax,1)

0000000000006d50 <_ZN63_$LT$I$u20$as$u20$core..iter..traits..collect..IntoIterator$GT$9into_iter17h05ae62fd1309fffeE>:
    6d50:	48 89 f8             	mov    %rdi,%rax
    6d53:	0f 10 06             	movups (%rsi),%xmm0
    6d56:	0f 10 4e 10          	movups 0x10(%rsi),%xmm1
    6d5a:	0f 11 4f 10          	movups %xmm1,0x10(%rdi)
    6d5e:	0f 11 07             	movups %xmm0,(%rdi)
    6d61:	c3                   	retq   
    6d62:	66 2e 0f 1f 84 00 00 	nopw   %cs:0x0(%rax,%rax,1)
    6d69:	00 00 00 
    6d6c:	0f 1f 40 00          	nopl   0x0(%rax)

0000000000006d70 <__rust_alloc>:
    6d70:	e9 5b 4d 01 00       	jmpq   1bad0 <__rdl_alloc>
    6d75:	66 2e 0f 1f 84 00 00 	nopw   %cs:0x0(%rax,%rax,1)
    6d7c:	00 00 00 
    6d7f:	90                   	nop

0000000000006d80 <__rust_dealloc>:
    6d80:	e9 9b 4d 01 00       	jmpq   1bb20 <__rdl_dealloc>
    6d85:	66 2e 0f 1f 84 00 00 	nopw   %cs:0x0(%rax,%rax,1)
    6d8c:	00 00 00 
    6d8f:	90                   	nop

0000000000006d90 <__rust_realloc>:
    6d90:	e9 9b 4d 01 00       	jmpq   1bb30 <__rdl_realloc>
    6d95:	66 2e 0f 1f 84 00 00 	nopw   %cs:0x0(%rax,%rax,1)
    6d9c:	00 00 00 
    6d9f:	90                   	nop

0000000000006da0 <__rust_alloc_zeroed>:
    6da0:	e9 2b 4e 01 00       	jmpq   1bbd0 <__rdl_alloc_zeroed>
    6da5:	66 2e 0f 1f 84 00 00 	nopw   %cs:0x0(%rax,%rax,1)
    6dac:	00 00 00 
    6daf:	90                   	nop

0000000000006db0 <_ZN112_$LT$alloc..collections..btree..map..IntoIter$LT$K$C$V$GT$$u20$as$u20$core..iter..traits..iterator..Iterator$GT$4next17he76c59a26bc8121cE>:
    6db0:	55                   	push   %rbp
    6db1:	41 57                	push   %r15
    6db3:	41 56                	push   %r14
    6db5:	41 55                	push   %r13
    6db7:	41 54                	push   %r12
    6db9:	53                   	push   %rbx
    6dba:	48 81 ec f8 00 00 00 	sub    $0xf8,%rsp
    6dc1:	48 89 fd             	mov    %rdi,%rbp
    6dc4:	48 8b 46 40          	mov    0x40(%rsi),%rax
    6dc8:	48 85 c0             	test   %rax,%rax
    6dcb:	74 3d                	je     6e0a <_ZN112_$LT$alloc..collections..btree..map..IntoIter$LT$K$C$V$GT$$u20$as$u20$core..iter..traits..iterator..Iterator$GT$4next17he76c59a26bc8121cE+0x5a>
    6dcd:	49 89 f4             	mov    %rsi,%r12
    6dd0:	48 83 c0 ff          	add    $0xffffffffffffffff,%rax
    6dd4:	48 89 46 40          	mov    %rax,0x40(%rsi)
    6dd8:	48 8b 46 08          	mov    0x8(%rsi),%rax
    6ddc:	48 85 c0             	test   %rax,%rax
    6ddf:	4c 0f 44 e0          	cmove  %rax,%r12
    6de3:	0f 84 67 02 00 00    	je     7050 <_ZN112_$LT$alloc..collections..btree..map..IntoIter$LT$K$C$V$GT$$u20$as$u20$core..iter..traits..iterator..Iterator$GT$4next17he76c59a26bc8121cE+0x2a0>
    6de9:	49 8b 04 24          	mov    (%r12),%rax
    6ded:	49 8b 7c 24 08       	mov    0x8(%r12),%rdi
    6df2:	4d 8b 44 24 10       	mov    0x10(%r12),%r8
    6df7:	4d 8b 6c 24 18       	mov    0x18(%r12),%r13
    6dfc:	0f b7 4f 0a          	movzwl 0xa(%rdi),%ecx
    6e00:	49 39 cd             	cmp    %rcx,%r13
    6e03:	73 12                	jae    6e17 <_ZN112_$LT$alloc..collections..btree..map..IntoIter$LT$K$C$V$GT$$u20$as$u20$core..iter..traits..iterator..Iterator$GT$4next17he76c59a26bc8121cE+0x67>
    6e05:	48 89 c3             	mov    %rax,%rbx
    6e08:	eb 6c                	jmp    6e76 <_ZN112_$LT$alloc..collections..btree..map..IntoIter$LT$K$C$V$GT$$u20$as$u20$core..iter..traits..iterator..Iterator$GT$4next17he76c59a26bc8121cE+0xc6>
    6e0a:	48 c7 45 10 02 00 00 	movq   $0x2,0x10(%rbp)
    6e11:	00 
    6e12:	e9 27 02 00 00       	jmpq   703e <_ZN112_$LT$alloc..collections..btree..map..IntoIter$LT$K$C$V$GT$$u20$as$u20$core..iter..traits..iterator..Iterator$GT$4next17he76c59a26bc8121cE+0x28e>
    6e17:	4c 89 04 24          	mov    %r8,(%rsp)
    6e1b:	48 89 6c 24 08       	mov    %rbp,0x8(%rsp)
    6e20:	bd 38 05 00 00       	mov    $0x538,%ebp
    6e25:	4c 8d 3d 54 ff ff ff 	lea    -0xac(%rip),%r15        # 6d80 <__rust_dealloc>
    6e2c:	eb 2f                	jmp    6e5d <_ZN112_$LT$alloc..collections..btree..map..IntoIter$LT$K$C$V$GT$$u20$as$u20$core..iter..traits..iterator..Iterator$GT$4next17he76c59a26bc8121cE+0xad>
    6e2e:	66 90                	xchg   %ax,%ax
    6e30:	48 8d 58 01          	lea    0x1(%rax),%rbx
    6e34:	44 0f b7 6f 08       	movzwl 0x8(%rdi),%r13d
    6e39:	48 85 c0             	test   %rax,%rax
    6e3c:	be 98 05 00 00       	mov    $0x598,%esi
    6e41:	48 0f 44 f5          	cmove  %rbp,%rsi
    6e45:	ba 08 00 00 00       	mov    $0x8,%edx
    6e4a:	41 ff d7             	callq  *%r15
    6e4d:	41 0f b7 4e 0a       	movzwl 0xa(%r14),%ecx
    6e52:	48 89 d8             	mov    %rbx,%rax
    6e55:	4c 89 f7             	mov    %r14,%rdi
    6e58:	49 39 cd             	cmp    %rcx,%r13
    6e5b:	72 0d                	jb     6e6a <_ZN112_$LT$alloc..collections..btree..map..IntoIter$LT$K$C$V$GT$$u20$as$u20$core..iter..traits..iterator..Iterator$GT$4next17he76c59a26bc8121cE+0xba>
    6e5d:	4c 8b 37             	mov    (%rdi),%r14
    6e60:	4d 85 f6             	test   %r14,%r14
    6e63:	75 cb                	jne    6e30 <_ZN112_$LT$alloc..collections..btree..map..IntoIter$LT$K$C$V$GT$$u20$as$u20$core..iter..traits..iterator..Iterator$GT$4next17he76c59a26bc8121cE+0x80>
    6e65:	45 31 f6             	xor    %r14d,%r14d
    6e68:	eb cf                	jmp    6e39 <_ZN112_$LT$alloc..collections..btree..map..IntoIter$LT$K$C$V$GT$$u20$as$u20$core..iter..traits..iterator..Iterator$GT$4next17he76c59a26bc8121cE+0x89>
    6e6a:	4c 89 f7             	mov    %r14,%rdi
    6e6d:	48 8b 6c 24 08       	mov    0x8(%rsp),%rbp
    6e72:	4c 8b 04 24          	mov    (%rsp),%r8
    6e76:	49 6b cd 70          	imul   $0x70,%r13,%rcx
    6e7a:	4a 8b 44 ef 10       	mov    0x10(%rdi,%r13,8),%rax
    6e7f:	0f 10 84 0f c8 00 00 	movups 0xc8(%rdi,%rcx,1),%xmm0
    6e86:	00 
    6e87:	0f 29 84 24 e0 00 00 	movaps %xmm0,0xe0(%rsp)
    6e8e:	00 
    6e8f:	0f 10 84 0f b8 00 00 	movups 0xb8(%rdi,%rcx,1),%xmm0
    6e96:	00 
    6e97:	0f 29 84 24 d0 00 00 	movaps %xmm0,0xd0(%rsp)
    6e9e:	00 
    6e9f:	0f 10 84 0f a8 00 00 	movups 0xa8(%rdi,%rcx,1),%xmm0
    6ea6:	00 
    6ea7:	0f 29 84 24 c0 00 00 	movaps %xmm0,0xc0(%rsp)
    6eae:	00 
    6eaf:	0f 10 44 0f 68       	movups 0x68(%rdi,%rcx,1),%xmm0
    6eb4:	0f 10 4c 0f 78       	movups 0x78(%rdi,%rcx,1),%xmm1
    6eb9:	0f 10 94 0f 88 00 00 	movups 0x88(%rdi,%rcx,1),%xmm2
    6ec0:	00 
    6ec1:	0f 10 9c 0f 98 00 00 	movups 0x98(%rdi,%rcx,1),%xmm3
    6ec8:	00 
    6ec9:	0f 29 9c 24 b0 00 00 	movaps %xmm3,0xb0(%rsp)
    6ed0:	00 
    6ed1:	0f 29 94 24 a0 00 00 	movaps %xmm2,0xa0(%rsp)
    6ed8:	00 
    6ed9:	0f 29 8c 24 90 00 00 	movaps %xmm1,0x90(%rsp)
    6ee0:	00 
    6ee1:	0f 29 84 24 80 00 00 	movaps %xmm0,0x80(%rsp)
    6ee8:	00 
    6ee9:	48 85 db             	test   %rbx,%rbx
    6eec:	0f 84 8e 00 00 00    	je     6f80 <_ZN112_$LT$alloc..collections..btree..map..IntoIter$LT$K$C$V$GT$$u20$as$u20$core..iter..traits..iterator..Iterator$GT$4next17he76c59a26bc8121cE+0x1d0>
    6ef2:	48 89 d9             	mov    %rbx,%rcx
    6ef5:	4a 8b bc ef 40 05 00 	mov    0x540(%rdi,%r13,8),%rdi
    6efc:	00 
    6efd:	48 83 c1 ff          	add    $0xffffffffffffffff,%rcx
    6f01:	0f 84 7f 00 00 00    	je     6f86 <_ZN112_$LT$alloc..collections..btree..map..IntoIter$LT$K$C$V$GT$$u20$as$u20$core..iter..traits..iterator..Iterator$GT$4next17he76c59a26bc8121cE+0x1d6>
    6f07:	48 83 c3 fe          	add    $0xfffffffffffffffe,%rbx
    6f0b:	48 89 ca             	mov    %rcx,%rdx
    6f0e:	48 83 e2 07          	and    $0x7,%rdx
    6f12:	74 1f                	je     6f33 <_ZN112_$LT$alloc..collections..btree..map..IntoIter$LT$K$C$V$GT$$u20$as$u20$core..iter..traits..iterator..Iterator$GT$4next17he76c59a26bc8121cE+0x183>
    6f14:	31 f6                	xor    %esi,%esi
    6f16:	66 2e 0f 1f 84 00 00 	nopw   %cs:0x0(%rax,%rax,1)
    6f1d:	00 00 00 
    6f20:	48 8b bf 38 05 00 00 	mov    0x538(%rdi),%rdi
    6f27:	48 83 c6 01          	add    $0x1,%rsi
    6f2b:	48 39 f2             	cmp    %rsi,%rdx
    6f2e:	75 f0                	jne    6f20 <_ZN112_$LT$alloc..collections..btree..map..IntoIter$LT$K$C$V$GT$$u20$as$u20$core..iter..traits..iterator..Iterator$GT$4next17he76c59a26bc8121cE+0x170>
    6f30:	48 29 f1             	sub    %rsi,%rcx
    6f33:	45 31 ed             	xor    %r13d,%r13d
    6f36:	48 83 fb 07          	cmp    $0x7,%rbx
    6f3a:	72 4d                	jb     6f89 <_ZN112_$LT$alloc..collections..btree..map..IntoIter$LT$K$C$V$GT$$u20$as$u20$core..iter..traits..iterator..Iterator$GT$4next17he76c59a26bc8121cE+0x1d9>
    6f3c:	0f 1f 40 00          	nopl   0x0(%rax)
    6f40:	48 8b 97 38 05 00 00 	mov    0x538(%rdi),%rdx
    6f47:	48 8b 92 38 05 00 00 	mov    0x538(%rdx),%rdx
    6f4e:	48 8b 92 38 05 00 00 	mov    0x538(%rdx),%rdx
    6f55:	48 8b 92 38 05 00 00 	mov    0x538(%rdx),%rdx
    6f5c:	48 8b 92 38 05 00 00 	mov    0x538(%rdx),%rdx
    6f63:	48 8b 92 38 05 00 00 	mov    0x538(%rdx),%rdx
    6f6a:	48 8b 92 38 05 00 00 	mov    0x538(%rdx),%rdx
    6f71:	48 8b ba 38 05 00 00 	mov    0x538(%rdx),%rdi
    6f78:	48 83 c1 f8          	add    $0xfffffffffffffff8,%rcx
    6f7c:	75 c2                	jne    6f40 <_ZN112_$LT$alloc..collections..btree..map..IntoIter$LT$K$C$V$GT$$u20$as$u20$core..iter..traits..iterator..Iterator$GT$4next17he76c59a26bc8121cE+0x190>
    6f7e:	eb 09                	jmp    6f89 <_ZN112_$LT$alloc..collections..btree..map..IntoIter$LT$K$C$V$GT$$u20$as$u20$core..iter..traits..iterator..Iterator$GT$4next17he76c59a26bc8121cE+0x1d9>
    6f80:	49 83 c5 01          	add    $0x1,%r13
    6f84:	eb 03                	jmp    6f89 <_ZN112_$LT$alloc..collections..btree..map..IntoIter$LT$K$C$V$GT$$u20$as$u20$core..iter..traits..iterator..Iterator$GT$4next17he76c59a26bc8121cE+0x1d9>
    6f86:	45 31 ed             	xor    %r13d,%r13d
    6f89:	0f 28 84 24 e0 00 00 	movaps 0xe0(%rsp),%xmm0
    6f90:	00 
    6f91:	0f 29 44 24 70       	movaps %xmm0,0x70(%rsp)
    6f96:	0f 28 84 24 d0 00 00 	movaps 0xd0(%rsp),%xmm0
    6f9d:	00 
    6f9e:	0f 29 44 24 60       	movaps %xmm0,0x60(%rsp)
    6fa3:	0f 28 84 24 c0 00 00 	movaps 0xc0(%rsp),%xmm0
    6faa:	00 
    6fab:	0f 29 44 24 50       	movaps %xmm0,0x50(%rsp)
    6fb0:	0f 28 84 24 80 00 00 	movaps 0x80(%rsp),%xmm0
    6fb7:	00 
    6fb8:	0f 28 8c 24 90 00 00 	movaps 0x90(%rsp),%xmm1
    6fbf:	00 
    6fc0:	0f 28 94 24 a0 00 00 	movaps 0xa0(%rsp),%xmm2
    6fc7:	00 
    6fc8:	0f 28 9c 24 b0 00 00 	movaps 0xb0(%rsp),%xmm3
    6fcf:	00 
    6fd0:	0f 29 5c 24 40       	movaps %xmm3,0x40(%rsp)
    6fd5:	0f 29 54 24 30       	movaps %xmm2,0x30(%rsp)
    6fda:	0f 29 4c 24 20       	movaps %xmm1,0x20(%rsp)
    6fdf:	0f 29 44 24 10       	movaps %xmm0,0x10(%rsp)
    6fe4:	49 c7 04 24 00 00 00 	movq   $0x0,(%r12)
    6feb:	00 
    6fec:	49 89 7c 24 08       	mov    %rdi,0x8(%r12)
    6ff1:	4d 89 44 24 10       	mov    %r8,0x10(%r12)
    6ff6:	4d 89 6c 24 18       	mov    %r13,0x18(%r12)
    6ffb:	48 89 45 00          	mov    %rax,0x0(%rbp)
    6fff:	0f 28 44 24 10       	movaps 0x10(%rsp),%xmm0
    7004:	0f 28 4c 24 20       	movaps 0x20(%rsp),%xmm1
    7009:	0f 28 54 24 30       	movaps 0x30(%rsp),%xmm2
    700e:	0f 28 5c 24 40       	movaps 0x40(%rsp),%xmm3
    7013:	0f 11 45 08          	movups %xmm0,0x8(%rbp)
    7017:	0f 11 4d 18          	movups %xmm1,0x18(%rbp)
    701b:	0f 11 55 28          	movups %xmm2,0x28(%rbp)
    701f:	0f 11 5d 38          	movups %xmm3,0x38(%rbp)
    7023:	0f 28 44 24 50       	movaps 0x50(%rsp),%xmm0
    7028:	0f 11 45 48          	movups %xmm0,0x48(%rbp)
    702c:	0f 28 44 24 60       	movaps 0x60(%rsp),%xmm0
    7031:	0f 11 45 58          	movups %xmm0,0x58(%rbp)
    7035:	0f 28 44 24 70       	movaps 0x70(%rsp),%xmm0
    703a:	0f 11 45 68          	movups %xmm0,0x68(%rbp)
    703e:	48 81 c4 f8 00 00 00 	add    $0xf8,%rsp
    7045:	5b                   	pop    %rbx
    7046:	41 5c                	pop    %r12
    7048:	41 5d                	pop    %r13
    704a:	41 5e                	pop    %r14
    704c:	41 5f                	pop    %r15
    704e:	5d                   	pop    %rbp
    704f:	c3                   	retq   
    7050:	48 8d 3d fc 24 03 00 	lea    0x324fc(%rip),%rdi        # 39553 <str.4+0x213>
    7057:	48 8d 15 9a f4 03 00 	lea    0x3f49a(%rip),%rdx        # 464f8 <anon.14c24cb995e3d6e38322ebd61970439a.0.llvm.3793478678705122716+0xb8>
    705e:	be 2b 00 00 00       	mov    $0x2b,%esi
    7063:	ff 15 9f 19 04 00    	callq  *0x4199f(%rip)        # 48a08 <_GLOBAL_OFFSET_TABLE_+0xc0>
    7069:	0f 0b                	ud2    
    706b:	0f 1f 44 00 00       	nopl   0x0(%rax,%rax,1)

0000000000007070 <_ZN36_$LT$T$u20$as$u20$core..any..Any$GT$7type_id17h725c8db60716eca0E>:
    7070:	48 b8 f4 bc c7 ec 1e 	movabs $0x7ef2a91eecc7bcf4,%rax
    7077:	a9 f2 7e 
    707a:	c3                   	retq   
    707b:	0f 1f 44 00 00       	nopl   0x0(%rax,%rax,1)

0000000000007080 <_ZN36_$LT$T$u20$as$u20$core..any..Any$GT$7type_id17h967ebcf4ac9293daE>:
    7080:	48 b8 2f 73 84 dd a2 	movabs $0x569341a2dd84732f,%rax
    7087:	41 93 56 
    708a:	c3                   	retq   
    708b:	0f 1f 44 00 00       	nopl   0x0(%rax,%rax,1)

0000000000007090 <_ZN36_$LT$T$u20$as$u20$core..any..Any$GT$7type_id17hb433dcde8a3759e3E>:
    7090:	48 b8 b5 51 f3 b1 45 	movabs $0xe8e0fb45b1f351b5,%rax
    7097:	fb e0 e8 
    709a:	c3                   	retq   
    709b:	0f 1f 44 00 00       	nopl   0x0(%rax,%rax,1)

00000000000070a0 <_ZN42_$LT$$RF$T$u20$as$u20$core..fmt..Debug$GT$3fmt17h2d7c2859374fcaaaE>:
    70a0:	41 56                	push   %r14
    70a2:	53                   	push   %rbx
    70a3:	50                   	push   %rax
    70a4:	48 89 f3             	mov    %rsi,%rbx
    70a7:	4c 8b 37             	mov    (%rdi),%r14
    70aa:	48 89 f7             	mov    %rsi,%rdi
    70ad:	ff 15 9d 19 04 00    	callq  *0x4199d(%rip)        # 48a50 <_GLOBAL_OFFSET_TABLE_+0x108>
    70b3:	84 c0                	test   %al,%al
    70b5:	74 13                	je     70ca <_ZN42_$LT$$RF$T$u20$as$u20$core..fmt..Debug$GT$3fmt17h2d7c2859374fcaaaE+0x2a>
    70b7:	4c 89 f7             	mov    %r14,%rdi
    70ba:	48 89 de             	mov    %rbx,%rsi
    70bd:	48 83 c4 08          	add    $0x8,%rsp
    70c1:	5b                   	pop    %rbx
    70c2:	41 5e                	pop    %r14
    70c4:	ff 25 3e 1d 04 00    	jmpq   *0x41d3e(%rip)        # 48e08 <_GLOBAL_OFFSET_TABLE_+0x4c0>
    70ca:	48 89 df             	mov    %rbx,%rdi
    70cd:	ff 15 85 1c 04 00    	callq  *0x41c85(%rip)        # 48d58 <_GLOBAL_OFFSET_TABLE_+0x410>
    70d3:	4c 89 f7             	mov    %r14,%rdi
    70d6:	48 89 de             	mov    %rbx,%rsi
    70d9:	48 83 c4 08          	add    $0x8,%rsp
    70dd:	84 c0                	test   %al,%al
    70df:	74 09                	je     70ea <_ZN42_$LT$$RF$T$u20$as$u20$core..fmt..Debug$GT$3fmt17h2d7c2859374fcaaaE+0x4a>
    70e1:	5b                   	pop    %rbx
    70e2:	41 5e                	pop    %r14
    70e4:	ff 25 46 1d 04 00    	jmpq   *0x41d46(%rip)        # 48e30 <_GLOBAL_OFFSET_TABLE_+0x4e8>
    70ea:	5b                   	pop    %rbx
    70eb:	41 5e                	pop    %r14
    70ed:	ff 25 bd 1a 04 00    	jmpq   *0x41abd(%rip)        # 48bb0 <_GLOBAL_OFFSET_TABLE_+0x268>
    70f3:	66 2e 0f 1f 84 00 00 	nopw   %cs:0x0(%rax,%rax,1)
    70fa:	00 00 00 
    70fd:	0f 1f 00             	nopl   (%rax)

0000000000007100 <_ZN42_$LT$$RF$T$u20$as$u20$core..fmt..Debug$GT$3fmt17h4c01e7d473608378E>:
    7100:	41 56                	push   %r14
    7102:	53                   	push   %rbx
    7103:	50                   	push   %rax
    7104:	48 89 f3             	mov    %rsi,%rbx
    7107:	4c 8b 37             	mov    (%rdi),%r14
    710a:	48 89 f7             	mov    %rsi,%rdi
    710d:	ff 15 3d 19 04 00    	callq  *0x4193d(%rip)        # 48a50 <_GLOBAL_OFFSET_TABLE_+0x108>
    7113:	84 c0                	test   %al,%al
    7115:	74 13                	je     712a <_ZN42_$LT$$RF$T$u20$as$u20$core..fmt..Debug$GT$3fmt17h4c01e7d473608378E+0x2a>
    7117:	4c 89 f7             	mov    %r14,%rdi
    711a:	48 89 de             	mov    %rbx,%rsi
    711d:	48 83 c4 08          	add    $0x8,%rsp
    7121:	5b                   	pop    %rbx
    7122:	41 5e                	pop    %r14
    7124:	ff 25 be 19 04 00    	jmpq   *0x419be(%rip)        # 48ae8 <_GLOBAL_OFFSET_TABLE_+0x1a0>
    712a:	48 89 df             	mov    %rbx,%rdi
    712d:	ff 15 25 1c 04 00    	callq  *0x41c25(%rip)        # 48d58 <_GLOBAL_OFFSET_TABLE_+0x410>
    7133:	4c 89 f7             	mov    %r14,%rdi
    7136:	48 89 de             	mov    %rbx,%rsi
    7139:	48 83 c4 08          	add    $0x8,%rsp
    713d:	84 c0                	test   %al,%al
    713f:	74 09                	je     714a <_ZN42_$LT$$RF$T$u20$as$u20$core..fmt..Debug$GT$3fmt17h4c01e7d473608378E+0x4a>
    7141:	5b                   	pop    %rbx
    7142:	41 5e                	pop    %r14
    7144:	ff 25 7e 1e 04 00    	jmpq   *0x41e7e(%rip)        # 48fc8 <_GLOBAL_OFFSET_TABLE_+0x680>
    714a:	5b                   	pop    %rbx
    714b:	41 5e                	pop    %r14
    714d:	ff 25 25 1d 04 00    	jmpq   *0x41d25(%rip)        # 48e78 <_GLOBAL_OFFSET_TABLE_+0x530>
    7153:	66 2e 0f 1f 84 00 00 	nopw   %cs:0x0(%rax,%rax,1)
    715a:	00 00 00 
    715d:	0f 1f 00             	nopl   (%rax)

0000000000007160 <_ZN42_$LT$$RF$T$u20$as$u20$core..fmt..Debug$GT$3fmt17h7e477446b8f86c2eE>:
    7160:	41 56                	push   %r14
    7162:	53                   	push   %rbx
    7163:	50                   	push   %rax
    7164:	48 89 f3             	mov    %rsi,%rbx
    7167:	4c 8b 37             	mov    (%rdi),%r14
    716a:	48 89 f7             	mov    %rsi,%rdi
    716d:	ff 15 dd 18 04 00    	callq  *0x418dd(%rip)        # 48a50 <_GLOBAL_OFFSET_TABLE_+0x108>
    7173:	84 c0                	test   %al,%al
    7175:	74 13                	je     718a <_ZN42_$LT$$RF$T$u20$as$u20$core..fmt..Debug$GT$3fmt17h7e477446b8f86c2eE+0x2a>
    7177:	4c 89 f7             	mov    %r14,%rdi
    717a:	48 89 de             	mov    %rbx,%rsi
    717d:	48 83 c4 08          	add    $0x8,%rsp
    7181:	5b                   	pop    %rbx
    7182:	41 5e                	pop    %r14
    7184:	ff 25 2e 1b 04 00    	jmpq   *0x41b2e(%rip)        # 48cb8 <_GLOBAL_OFFSET_TABLE_+0x370>
    718a:	48 89 df             	mov    %rbx,%rdi
    718d:	ff 15 c5 1b 04 00    	callq  *0x41bc5(%rip)        # 48d58 <_GLOBAL_OFFSET_TABLE_+0x410>
    7193:	4c 89 f7             	mov    %r14,%rdi
    7196:	48 89 de             	mov    %rbx,%rsi
    7199:	48 83 c4 08          	add    $0x8,%rsp
    719d:	84 c0                	test   %al,%al
    719f:	74 09                	je     71aa <_ZN42_$LT$$RF$T$u20$as$u20$core..fmt..Debug$GT$3fmt17h7e477446b8f86c2eE+0x4a>
    71a1:	5b                   	pop    %rbx
    71a2:	41 5e                	pop    %r14
    71a4:	ff 25 be 1a 04 00    	jmpq   *0x41abe(%rip)        # 48c68 <_GLOBAL_OFFSET_TABLE_+0x320>
    71aa:	5b                   	pop    %rbx
    71ab:	41 5e                	pop    %r14
    71ad:	ff 25 25 1c 04 00    	jmpq   *0x41c25(%rip)        # 48dd8 <_GLOBAL_OFFSET_TABLE_+0x490>
    71b3:	66 2e 0f 1f 84 00 00 	nopw   %cs:0x0(%rax,%rax,1)
    71ba:	00 00 00 
    71bd:	0f 1f 00             	nopl   (%rax)

00000000000071c0 <_ZN42_$LT$$RF$T$u20$as$u20$core..fmt..Debug$GT$3fmt17h7e4be38a5305caeaE>:
    71c0:	55                   	push   %rbp
    71c1:	41 57                	push   %r15
    71c3:	41 56                	push   %r14
    71c5:	41 55                	push   %r13
    71c7:	41 54                	push   %r12
    71c9:	53                   	push   %rbx
    71ca:	48 83 ec 18          	sub    $0x18,%rsp
    71ce:	48 8b 07             	mov    (%rdi),%rax
    71d1:	48 8b 18             	mov    (%rax),%rbx
    71d4:	4c 8b 68 10          	mov    0x10(%rax),%r13
    71d8:	48 8d 7c 24 08       	lea    0x8(%rsp),%rdi
    71dd:	ff 15 85 18 04 00    	callq  *0x41885(%rip)        # 48a68 <_GLOBAL_OFFSET_TABLE_+0x120>
    71e3:	4d 85 ed             	test   %r13,%r13
    71e6:	74 31                	je     7219 <_ZN42_$LT$$RF$T$u20$as$u20$core..fmt..Debug$GT$3fmt17h7e4be38a5305caeaE+0x59>
    71e8:	4c 8d 35 c1 f3 03 00 	lea    0x3f3c1(%rip),%r14        # 465b0 <anon.14c24cb995e3d6e38322ebd61970439a.0.llvm.3793478678705122716+0x170>
    71ef:	4c 8d 7c 24 08       	lea    0x8(%rsp),%r15
    71f4:	49 89 e4             	mov    %rsp,%r12
    71f7:	48 8d 2d b2 b9 02 00 	lea    0x2b9b2(%rip),%rbp        # 32bb0 <_ZN4core3fmt8builders8DebugSet5entry17he05a6e76f0628fd1E>
    71fe:	66 90                	xchg   %ax,%ax
    7200:	48 89 1c 24          	mov    %rbx,(%rsp)
    7204:	48 83 c3 01          	add    $0x1,%rbx
    7208:	4c 89 ff             	mov    %r15,%rdi
    720b:	4c 89 e6             	mov    %r12,%rsi
    720e:	4c 89 f2             	mov    %r14,%rdx
    7211:	ff d5                	callq  *%rbp
    7213:	49 83 c5 ff          	add    $0xffffffffffffffff,%r13
    7217:	75 e7                	jne    7200 <_ZN42_$LT$$RF$T$u20$as$u20$core..fmt..Debug$GT$3fmt17h7e4be38a5305caeaE+0x40>
    7219:	48 8d 7c 24 08       	lea    0x8(%rsp),%rdi
    721e:	ff 15 1c 19 04 00    	callq  *0x4191c(%rip)        # 48b40 <_GLOBAL_OFFSET_TABLE_+0x1f8>
    7224:	48 83 c4 18          	add    $0x18,%rsp
    7228:	5b                   	pop    %rbx
    7229:	41 5c                	pop    %r12
    722b:	41 5d                	pop    %r13
    722d:	41 5e                	pop    %r14
    722f:	41 5f                	pop    %r15
    7231:	5d                   	pop    %rbp
    7232:	c3                   	retq   
    7233:	66 2e 0f 1f 84 00 00 	nopw   %cs:0x0(%rax,%rax,1)
    723a:	00 00 00 
    723d:	0f 1f 00             	nopl   (%rax)

0000000000007240 <_ZN42_$LT$$RF$T$u20$as$u20$core..fmt..Debug$GT$3fmt17hc08d28f68f574a2fE>:
    7240:	48 89 f2             	mov    %rsi,%rdx
    7243:	48 8b 07             	mov    (%rdi),%rax
    7246:	48 8b 77 08          	mov    0x8(%rdi),%rsi
    724a:	48 89 c7             	mov    %rax,%rdi
    724d:	ff 25 35 1d 04 00    	jmpq   *0x41d35(%rip)        # 48f88 <_GLOBAL_OFFSET_TABLE_+0x640>
    7253:	66 2e 0f 1f 84 00 00 	nopw   %cs:0x0(%rax,%rax,1)
    725a:	00 00 00 
    725d:	0f 1f 00             	nopl   (%rax)

0000000000007260 <_ZN44_$LT$$RF$T$u20$as$u20$core..fmt..Display$GT$3fmt17h87345b30b52fad68E>:
    7260:	48 89 f2             	mov    %rsi,%rdx
    7263:	48 8b 07             	mov    (%rdi),%rax
    7266:	48 8b 77 08          	mov    0x8(%rdi),%rsi
    726a:	48 89 c7             	mov    %rax,%rdi
    726d:	ff 25 35 1a 04 00    	jmpq   *0x41a35(%rip)        # 48ca8 <_GLOBAL_OFFSET_TABLE_+0x360>
    7273:	66 2e 0f 1f 84 00 00 	nopw   %cs:0x0(%rax,%rax,1)
    727a:	00 00 00 
    727d:	0f 1f 00             	nopl   (%rax)

0000000000007280 <_ZN44_$LT$$RF$T$u20$as$u20$core..fmt..Display$GT$3fmt17hbe99206256f9099aE>:
    7280:	48 8b 3f             	mov    (%rdi),%rdi
    7283:	ff 25 97 18 04 00    	jmpq   *0x41897(%rip)        # 48b20 <_GLOBAL_OFFSET_TABLE_+0x1d8>
    7289:	0f 1f 80 00 00 00 00 	nopl   0x0(%rax)

0000000000007290 <_ZN45_$LT$$RF$T$u20$as$u20$core..fmt..UpperHex$GT$3fmt17h22b0b0227175f633E>:
    7290:	48 8b 3f             	mov    (%rdi),%rdi
    7293:	ff 25 2f 1d 04 00    	jmpq   *0x41d2f(%rip)        # 48fc8 <_GLOBAL_OFFSET_TABLE_+0x680>
    7299:	0f 1f 80 00 00 00 00 	nopl   0x0(%rax)

00000000000072a0 <_ZN4core3fmt5Write10write_char17h14b604f619cee73bE>:
    72a0:	50                   	push   %rax
    72a1:	89 f0                	mov    %esi,%eax
    72a3:	c7 44 24 04 00 00 00 	movl   $0x0,0x4(%rsp)
    72aa:	00 
    72ab:	81 fe 80 00 00 00    	cmp    $0x80,%esi
    72b1:	73 15                	jae    72c8 <_ZN4core3fmt5Write10write_char17h14b604f619cee73bE+0x28>
    72b3:	48 8d 74 24 04       	lea    0x4(%rsp),%rsi
    72b8:	88 44 24 04          	mov    %al,0x4(%rsp)
    72bc:	ba 01 00 00 00       	mov    $0x1,%edx
    72c1:	e8 1a 17 01 00       	callq  189e0 <_ZN80_$LT$std..io..Write..write_fmt..Adaptor$LT$T$GT$$u20$as$u20$core..fmt..Write$GT$9write_str17he9ad73c5296c3f02E>
    72c6:	59                   	pop    %rcx
    72c7:	c3                   	retq   
    72c8:	48 8d 74 24 04       	lea    0x4(%rsp),%rsi
    72cd:	89 c1                	mov    %eax,%ecx
    72cf:	3d 00 08 00 00       	cmp    $0x800,%eax
    72d4:	73 1e                	jae    72f4 <_ZN4core3fmt5Write10write_char17h14b604f619cee73bE+0x54>
    72d6:	c1 e9 06             	shr    $0x6,%ecx
    72d9:	80 c9 c0             	or     $0xc0,%cl
    72dc:	88 4c 24 04          	mov    %cl,0x4(%rsp)
    72e0:	24 3f                	and    $0x3f,%al
    72e2:	0c 80                	or     $0x80,%al
    72e4:	88 44 24 05          	mov    %al,0x5(%rsp)
    72e8:	ba 02 00 00 00       	mov    $0x2,%edx
    72ed:	e8 ee 16 01 00       	callq  189e0 <_ZN80_$LT$std..io..Write..write_fmt..Adaptor$LT$T$GT$$u20$as$u20$core..fmt..Write$GT$9write_str17he9ad73c5296c3f02E>
    72f2:	59                   	pop    %rcx
    72f3:	c3                   	retq   
    72f4:	3d 00 00 01 00       	cmp    $0x10000,%eax
    72f9:	73 2d                	jae    7328 <_ZN4core3fmt5Write10write_char17h14b604f619cee73bE+0x88>
    72fb:	c1 e9 0c             	shr    $0xc,%ecx
    72fe:	80 c9 e0             	or     $0xe0,%cl
    7301:	88 4c 24 04          	mov    %cl,0x4(%rsp)
    7305:	89 c1                	mov    %eax,%ecx
    7307:	c1 e9 06             	shr    $0x6,%ecx
    730a:	80 e1 3f             	and    $0x3f,%cl
    730d:	80 c9 80             	or     $0x80,%cl
    7310:	88 4c 24 05          	mov    %cl,0x5(%rsp)
    7314:	24 3f                	and    $0x3f,%al
    7316:	0c 80                	or     $0x80,%al
    7318:	88 44 24 06          	mov    %al,0x6(%rsp)
    731c:	ba 03 00 00 00       	mov    $0x3,%edx
    7321:	e8 ba 16 01 00       	callq  189e0 <_ZN80_$LT$std..io..Write..write_fmt..Adaptor$LT$T$GT$$u20$as$u20$core..fmt..Write$GT$9write_str17he9ad73c5296c3f02E>
    7326:	59                   	pop    %rcx
    7327:	c3                   	retq   
    7328:	c1 e9 12             	shr    $0x12,%ecx
    732b:	80 c9 f0             	or     $0xf0,%cl
    732e:	88 4c 24 04          	mov    %cl,0x4(%rsp)
    7332:	89 c1                	mov    %eax,%ecx
    7334:	c1 e9 0c             	shr    $0xc,%ecx
    7337:	80 e1 3f             	and    $0x3f,%cl
    733a:	80 c9 80             	or     $0x80,%cl
    733d:	88 4c 24 05          	mov    %cl,0x5(%rsp)
    7341:	89 c1                	mov    %eax,%ecx
    7343:	c1 e9 06             	shr    $0x6,%ecx
    7346:	80 e1 3f             	and    $0x3f,%cl
    7349:	80 c9 80             	or     $0x80,%cl
    734c:	88 4c 24 06          	mov    %cl,0x6(%rsp)
    7350:	24 3f                	and    $0x3f,%al
    7352:	0c 80                	or     $0x80,%al
    7354:	88 44 24 07          	mov    %al,0x7(%rsp)
    7358:	ba 04 00 00 00       	mov    $0x4,%edx
    735d:	e8 7e 16 01 00       	callq  189e0 <_ZN80_$LT$std..io..Write..write_fmt..Adaptor$LT$T$GT$$u20$as$u20$core..fmt..Write$GT$9write_str17he9ad73c5296c3f02E>
    7362:	59                   	pop    %rcx
    7363:	c3                   	retq   
    7364:	66 2e 0f 1f 84 00 00 	nopw   %cs:0x0(%rax,%rax,1)
    736b:	00 00 00 
    736e:	66 90                	xchg   %ax,%ax

0000000000007370 <_ZN4core3fmt5Write10write_char17h46fbda3c48054e19E>:
    7370:	50                   	push   %rax
    7371:	89 f0                	mov    %esi,%eax
    7373:	c7 44 24 04 00 00 00 	movl   $0x0,0x4(%rsp)
    737a:	00 
    737b:	81 fe 80 00 00 00    	cmp    $0x80,%esi
    7381:	73 15                	jae    7398 <_ZN4core3fmt5Write10write_char17h46fbda3c48054e19E+0x28>
    7383:	48 8d 74 24 04       	lea    0x4(%rsp),%rsi
    7388:	88 44 24 04          	mov    %al,0x4(%rsp)
    738c:	ba 01 00 00 00       	mov    $0x1,%edx
    7391:	e8 7a 15 01 00       	callq  18910 <_ZN80_$LT$std..io..Write..write_fmt..Adaptor$LT$T$GT$$u20$as$u20$core..fmt..Write$GT$9write_str17hbe27798b151a7541E>
    7396:	59                   	pop    %rcx
    7397:	c3                   	retq   
    7398:	48 8d 74 24 04       	lea    0x4(%rsp),%rsi
    739d:	89 c1                	mov    %eax,%ecx
    739f:	3d 00 08 00 00       	cmp    $0x800,%eax
    73a4:	73 1e                	jae    73c4 <_ZN4core3fmt5Write10write_char17h46fbda3c48054e19E+0x54>
    73a6:	c1 e9 06             	shr    $0x6,%ecx
    73a9:	80 c9 c0             	or     $0xc0,%cl
    73ac:	88 4c 24 04          	mov    %cl,0x4(%rsp)
    73b0:	24 3f                	and    $0x3f,%al
    73b2:	0c 80                	or     $0x80,%al
    73b4:	88 44 24 05          	mov    %al,0x5(%rsp)
    73b8:	ba 02 00 00 00       	mov    $0x2,%edx
    73bd:	e8 4e 15 01 00       	callq  18910 <_ZN80_$LT$std..io..Write..write_fmt..Adaptor$LT$T$GT$$u20$as$u20$core..fmt..Write$GT$9write_str17hbe27798b151a7541E>
    73c2:	59                   	pop    %rcx
    73c3:	c3                   	retq   
    73c4:	3d 00 00 01 00       	cmp    $0x10000,%eax
    73c9:	73 2d                	jae    73f8 <_ZN4core3fmt5Write10write_char17h46fbda3c48054e19E+0x88>
    73cb:	c1 e9 0c             	shr    $0xc,%ecx
    73ce:	80 c9 e0             	or     $0xe0,%cl
    73d1:	88 4c 24 04          	mov    %cl,0x4(%rsp)
    73d5:	89 c1                	mov    %eax,%ecx
    73d7:	c1 e9 06             	shr    $0x6,%ecx
    73da:	80 e1 3f             	and    $0x3f,%cl
    73dd:	80 c9 80             	or     $0x80,%cl
    73e0:	88 4c 24 05          	mov    %cl,0x5(%rsp)
    73e4:	24 3f                	and    $0x3f,%al
    73e6:	0c 80                	or     $0x80,%al
    73e8:	88 44 24 06          	mov    %al,0x6(%rsp)
    73ec:	ba 03 00 00 00       	mov    $0x3,%edx
    73f1:	e8 1a 15 01 00       	callq  18910 <_ZN80_$LT$std..io..Write..write_fmt..Adaptor$LT$T$GT$$u20$as$u20$core..fmt..Write$GT$9write_str17hbe27798b151a7541E>
    73f6:	59                   	pop    %rcx
    73f7:	c3                   	retq   
    73f8:	c1 e9 12             	shr    $0x12,%ecx
    73fb:	80 c9 f0             	or     $0xf0,%cl
    73fe:	88 4c 24 04          	mov    %cl,0x4(%rsp)
    7402:	89 c1                	mov    %eax,%ecx
    7404:	c1 e9 0c             	shr    $0xc,%ecx
    7407:	80 e1 3f             	and    $0x3f,%cl
    740a:	80 c9 80             	or     $0x80,%cl
    740d:	88 4c 24 05          	mov    %cl,0x5(%rsp)
    7411:	89 c1                	mov    %eax,%ecx
    7413:	c1 e9 06             	shr    $0x6,%ecx
    7416:	80 e1 3f             	and    $0x3f,%cl
    7419:	80 c9 80             	or     $0x80,%cl
    741c:	88 4c 24 06          	mov    %cl,0x6(%rsp)
    7420:	24 3f                	and    $0x3f,%al
    7422:	0c 80                	or     $0x80,%al
    7424:	88 44 24 07          	mov    %al,0x7(%rsp)
    7428:	ba 04 00 00 00       	mov    $0x4,%edx
    742d:	e8 de 14 01 00       	callq  18910 <_ZN80_$LT$std..io..Write..write_fmt..Adaptor$LT$T$GT$$u20$as$u20$core..fmt..Write$GT$9write_str17hbe27798b151a7541E>
    7432:	59                   	pop    %rcx
    7433:	c3                   	retq   
    7434:	66 2e 0f 1f 84 00 00 	nopw   %cs:0x0(%rax,%rax,1)
    743b:	00 00 00 
    743e:	66 90                	xchg   %ax,%ax

0000000000007440 <_ZN4core3fmt5Write9write_fmt17h6f60dc6bc20f8029E>:
    7440:	48 83 ec 48          	sub    $0x48,%rsp
    7444:	48 89 7c 24 08       	mov    %rdi,0x8(%rsp)
    7449:	0f 10 06             	movups (%rsi),%xmm0
    744c:	0f 10 4e 10          	movups 0x10(%rsi),%xmm1
    7450:	0f 10 56 20          	movups 0x20(%rsi),%xmm2
    7454:	0f 29 54 24 30       	movaps %xmm2,0x30(%rsp)
    7459:	0f 29 4c 24 20       	movaps %xmm1,0x20(%rsp)
    745e:	0f 29 44 24 10       	movaps %xmm0,0x10(%rsp)
    7463:	48 8d 35 e6 f0 03 00 	lea    0x3f0e6(%rip),%rsi        # 46550 <anon.14c24cb995e3d6e38322ebd61970439a.0.llvm.3793478678705122716+0x110>
    746a:	48 8d 7c 24 08       	lea    0x8(%rsp),%rdi
    746f:	48 8d 54 24 10       	lea    0x10(%rsp),%rdx
    7474:	ff 15 36 16 04 00    	callq  *0x41636(%rip)        # 48ab0 <_GLOBAL_OFFSET_TABLE_+0x168>
    747a:	48 83 c4 48          	add    $0x48,%rsp
    747e:	c3                   	retq   
    747f:	90                   	nop

0000000000007480 <_ZN4core3fmt5Write9write_fmt17he16eef8a1f8ebcddE>:
    7480:	48 83 ec 48          	sub    $0x48,%rsp
    7484:	48 89 7c 24 08       	mov    %rdi,0x8(%rsp)
    7489:	0f 10 06             	movups (%rsi),%xmm0
    748c:	0f 10 4e 10          	movups 0x10(%rsi),%xmm1
    7490:	0f 10 56 20          	movups 0x20(%rsi),%xmm2
    7494:	0f 29 54 24 30       	movaps %xmm2,0x30(%rsp)
    7499:	0f 29 4c 24 20       	movaps %xmm1,0x20(%rsp)
    749e:	0f 29 44 24 10       	movaps %xmm0,0x10(%rsp)
    74a3:	48 8d 35 d6 f0 03 00 	lea    0x3f0d6(%rip),%rsi        # 46580 <anon.14c24cb995e3d6e38322ebd61970439a.0.llvm.3793478678705122716+0x140>
    74aa:	48 8d 7c 24 08       	lea    0x8(%rsp),%rdi
    74af:	48 8d 54 24 10       	lea    0x10(%rsp),%rdx
    74b4:	ff 15 f6 15 04 00    	callq  *0x415f6(%rip)        # 48ab0 <_GLOBAL_OFFSET_TABLE_+0x168>
    74ba:	48 83 c4 48          	add    $0x48,%rsp
    74be:	c3                   	retq   
    74bf:	90                   	nop

00000000000074c0 <_ZN4core3ops8function6FnOnce40call_once$u7b$$u7b$vtable.shim$u7d$$u7d$17h2dc46f5f85f7ffd6E>:
    74c0:	50                   	push   %rax
    74c1:	48 8b 07             	mov    (%rdi),%rax
    74c4:	48 89 04 24          	mov    %rax,(%rsp)
    74c8:	48 89 e7             	mov    %rsp,%rdi
    74cb:	e8 f0 22 01 00       	callq  197c0 <_ZN3std4sync4once4Once9call_once28_$u7b$$u7b$closure$u7d$$u7d$17h1ff260f23c4fa3deE>
    74d0:	58                   	pop    %rax
    74d1:	c3                   	retq   
    74d2:	66 2e 0f 1f 84 00 00 	nopw   %cs:0x0(%rax,%rax,1)
    74d9:	00 00 00 
    74dc:	0f 1f 40 00          	nopl   0x0(%rax)

00000000000074e0 <_ZN4core3ops8function6FnOnce40call_once$u7b$$u7b$vtable.shim$u7d$$u7d$17h323869982e233a92E>:
    74e0:	41 56                	push   %r14
    74e2:	53                   	push   %rbx
    74e3:	50                   	push   %rax
    74e4:	48 8b 1f             	mov    (%rdi),%rbx
    74e7:	48 89 df             	mov    %rbx,%rdi
    74ea:	ff 15 e0 1a 04 00    	callq  *0x41ae0(%rip)        # 48fd0 <pthread_mutex_lock@GLIBC_2.2.5>
    74f0:	4c 8b 73 28          	mov    0x28(%rbx),%r14
    74f4:	48 c7 43 28 01 00 00 	movq   $0x1,0x28(%rbx)
    74fb:	00 
    74fc:	48 89 df             	mov    %rbx,%rdi
    74ff:	ff 15 73 18 04 00    	callq  *0x41873(%rip)        # 48d78 <pthread_mutex_unlock@GLIBC_2.2.5>
    7505:	49 8b 06             	mov    (%r14),%rax
    7508:	f0 48 83 28 01       	lock subq $0x1,(%rax)
    750d:	75 08                	jne    7517 <_ZN4core3ops8function6FnOnce40call_once$u7b$$u7b$vtable.shim$u7d$$u7d$17h323869982e233a92E+0x37>
    750f:	4c 89 f7             	mov    %r14,%rdi
    7512:	e8 29 3e 00 00       	callq  b340 <_ZN5alloc4sync12Arc$LT$T$GT$9drop_slow17h08ec9b9e6c05bb87E>
    7517:	be 08 00 00 00       	mov    $0x8,%esi
    751c:	ba 08 00 00 00       	mov    $0x8,%edx
    7521:	4c 89 f7             	mov    %r14,%rdi
    7524:	48 83 c4 08          	add    $0x8,%rsp
    7528:	5b                   	pop    %rbx
    7529:	41 5e                	pop    %r14
    752b:	ff 25 a7 16 04 00    	jmpq   *0x416a7(%rip)        # 48bd8 <_GLOBAL_OFFSET_TABLE_+0x290>
    7531:	48 89 c3             	mov    %rax,%rbx
    7534:	4c 89 f7             	mov    %r14,%rdi
    7537:	e8 f4 3e 00 00       	callq  b430 <_ZN5alloc5alloc8box_free17h1d681087d552eb52E>
    753c:	48 89 df             	mov    %rbx,%rdi
    753f:	e8 3c eb ff ff       	callq  6080 <_Unwind_Resume@plt>
    7544:	0f 0b                	ud2    
    7546:	66 2e 0f 1f 84 00 00 	nopw   %cs:0x0(%rax,%rax,1)
    754d:	00 00 00 

0000000000007550 <_ZN4core3ops8function6FnOnce40call_once$u7b$$u7b$vtable.shim$u7d$$u7d$17h6ca793f25001ec90E>:
    7550:	55                   	push   %rbp
    7551:	53                   	push   %rbx
    7552:	48 83 ec 18          	sub    $0x18,%rsp
    7556:	48 89 f0             	mov    %rsi,%rax
    7559:	48 89 fb             	mov    %rdi,%rbx
    755c:	48 8b 4a 10          	mov    0x10(%rdx),%rcx
    7560:	48 89 4c 24 10       	mov    %rcx,0x10(%rsp)
    7565:	0f 10 02             	movups (%rdx),%xmm0
    7568:	0f 29 04 24          	movaps %xmm0,(%rsp)
    756c:	48 8b 0f             	mov    (%rdi),%rcx
    756f:	48 85 c9             	test   %rcx,%rcx
    7572:	48 0f 45 cf          	cmovne %rdi,%rcx
    7576:	8b 57 18             	mov    0x18(%rdi),%edx
    7579:	48 89 e6             	mov    %rsp,%rsi
    757c:	48 89 c7             	mov    %rax,%rdi
    757f:	e8 bc 30 01 00       	callq  1a640 <_ZN3std10sys_common9backtrace15output_filename17hc8ad426bd3107ff9E>
    7584:	89 c5                	mov    %eax,%ebp
    7586:	48 8b 3b             	mov    (%rbx),%rdi
    7589:	48 85 ff             	test   %rdi,%rdi
    758c:	74 14                	je     75a2 <_ZN4core3ops8function6FnOnce40call_once$u7b$$u7b$vtable.shim$u7d$$u7d$17h6ca793f25001ec90E+0x52>
    758e:	48 8b 73 08          	mov    0x8(%rbx),%rsi
    7592:	48 85 f6             	test   %rsi,%rsi
    7595:	74 0b                	je     75a2 <_ZN4core3ops8function6FnOnce40call_once$u7b$$u7b$vtable.shim$u7d$$u7d$17h6ca793f25001ec90E+0x52>
    7597:	ba 01 00 00 00       	mov    $0x1,%edx
    759c:	ff 15 36 16 04 00    	callq  *0x41636(%rip)        # 48bd8 <_GLOBAL_OFFSET_TABLE_+0x290>
    75a2:	89 e8                	mov    %ebp,%eax
    75a4:	48 83 c4 18          	add    $0x18,%rsp
    75a8:	5b                   	pop    %rbx
    75a9:	5d                   	pop    %rbp
    75aa:	c3                   	retq   
    75ab:	48 89 c5             	mov    %rax,%rbp
    75ae:	48 89 df             	mov    %rbx,%rdi
    75b1:	e8 ca 0d 00 00       	callq  8380 <_ZN4core3ptr13drop_in_place17h5fbcc78f88b53dc4E>
    75b6:	48 89 ef             	mov    %rbp,%rdi
    75b9:	e8 c2 ea ff ff       	callq  6080 <_Unwind_Resume@plt>
    75be:	0f 0b                	ud2    

00000000000075c0 <_ZN4core3ops8function6FnOnce40call_once$u7b$$u7b$vtable.shim$u7d$$u7d$17haf1f468ddca8d180E>:
    75c0:	e9 fb 2e 01 00       	jmpq   1a4c0 <_ZN3std10sys_common9backtrace10_print_fmt28_$u7b$$u7b$closure$u7d$$u7d$17h7d8209b5ca53b2bfE>
    75c5:	66 2e 0f 1f 84 00 00 	nopw   %cs:0x0(%rax,%rax,1)
    75cc:	00 00 00 
    75cf:	90                   	nop

00000000000075d0 <_ZN4core3ops8function6FnOnce40call_once$u7b$$u7b$vtable.shim$u7d$$u7d$17hc18d5fb0086273c7E>:
    75d0:	e9 db 2c 01 00       	jmpq   1a2b0 <_ZN3std10sys_common9backtrace10_print_fmt28_$u7b$$u7b$closure$u7d$$u7d$28_$u7b$$u7b$closure$u7d$$u7d$17hbca17aa9ac314b7cE>
    75d5:	66 2e 0f 1f 84 00 00 	nopw   %cs:0x0(%rax,%rax,1)
    75dc:	00 00 00 
    75df:	90                   	nop

00000000000075e0 <_ZN4core3ptr13drop_in_place17h0012aa640cf5f459E>:
    75e0:	c3                   	retq   
    75e1:	66 2e 0f 1f 84 00 00 	nopw   %cs:0x0(%rax,%rax,1)
    75e8:	00 00 00 
    75eb:	0f 1f 44 00 00       	nopl   0x0(%rax,%rax,1)

00000000000075f0 <_ZN4core3ptr13drop_in_place17h00320f6bcdf4c93aE>:
    75f0:	48 8b 07             	mov    (%rdi),%rax
    75f3:	c6 00 00             	movb   $0x0,(%rax)
    75f6:	48 8b 77 08          	mov    0x8(%rdi),%rsi
    75fa:	48 85 f6             	test   %rsi,%rsi
    75fd:	74 0e                	je     760d <_ZN4core3ptr13drop_in_place17h00320f6bcdf4c93aE+0x1d>
    75ff:	48 8b 3f             	mov    (%rdi),%rdi
    7602:	ba 01 00 00 00       	mov    $0x1,%edx
    7607:	ff 25 cb 15 04 00    	jmpq   *0x415cb(%rip)        # 48bd8 <_GLOBAL_OFFSET_TABLE_+0x290>
    760d:	c3                   	retq   
    760e:	66 90                	xchg   %ax,%ax

0000000000007610 <_ZN4core3ptr13drop_in_place17h01cc0c1a61e28d7bE>:
    7610:	41 57                	push   %r15
    7612:	41 56                	push   %r14
    7614:	41 55                	push   %r13
    7616:	41 54                	push   %r12
    7618:	53                   	push   %rbx
    7619:	49 89 fe             	mov    %rdi,%r14
    761c:	4c 8b 2f             	mov    (%rdi),%r13
    761f:	48 8b 47 10          	mov    0x10(%rdi),%rax
    7623:	48 85 c0             	test   %rax,%rax
    7626:	0f 84 a2 00 00 00    	je     76ce <_ZN4core3ptr13drop_in_place17h01cc0c1a61e28d7bE+0xbe>
    762c:	48 89 c1             	mov    %rax,%rcx
    762f:	48 c1 e1 09          	shl    $0x9,%rcx
    7633:	4c 8d 24 c1          	lea    (%rcx,%rax,8),%r12
    7637:	31 db                	xor    %ebx,%ebx
    7639:	eb 11                	jmp    764c <_ZN4core3ptr13drop_in_place17h01cc0c1a61e28d7bE+0x3c>
    763b:	0f 1f 44 00 00       	nopl   0x0(%rax,%rax,1)
    7640:	48 81 c3 08 02 00 00 	add    $0x208,%rbx
    7647:	49 39 dc             	cmp    %rbx,%r12
    764a:	74 7f                	je     76cb <_ZN4core3ptr13drop_in_place17h01cc0c1a61e28d7bE+0xbb>
    764c:	4a 8d 3c 2b          	lea    (%rbx,%r13,1),%rdi
    7650:	48 83 c7 40          	add    $0x40,%rdi
    7654:	e8 97 10 00 00       	callq  86f0 <_ZN4core3ptr13drop_in_place17ha8f855a39b7d9edaE>
    7659:	41 83 bc 1d 60 01 00 	cmpl   $0x2e,0x160(%r13,%rbx,1)
    7660:	00 2e 
    7662:	75 1c                	jne    7680 <_ZN4core3ptr13drop_in_place17h01cc0c1a61e28d7bE+0x70>
    7664:	41 83 bc 1d b0 01 00 	cmpl   $0x2,0x1b0(%r13,%rbx,1)
    766b:	00 02 
    766d:	75 2c                	jne    769b <_ZN4core3ptr13drop_in_place17h01cc0c1a61e28d7bE+0x8b>
    766f:	41 83 bc 1d d8 01 00 	cmpl   $0x2,0x1d8(%r13,%rbx,1)
    7676:	00 02 
    7678:	74 c6                	je     7640 <_ZN4core3ptr13drop_in_place17h01cc0c1a61e28d7bE+0x30>
    767a:	eb 3a                	jmp    76b6 <_ZN4core3ptr13drop_in_place17h01cc0c1a61e28d7bE+0xa6>
    767c:	0f 1f 40 00          	nopl   0x0(%rax)
    7680:	4a 8d 3c 2b          	lea    (%rbx,%r13,1),%rdi
    7684:	48 81 c7 b8 00 00 00 	add    $0xb8,%rdi
    768b:	e8 20 17 00 00       	callq  8db0 <_ZN4core3ptr13drop_in_place17he129aa9fa1d19118E>
    7690:	41 83 bc 1d b0 01 00 	cmpl   $0x2,0x1b0(%r13,%rbx,1)
    7697:	00 02 
    7699:	74 d4                	je     766f <_ZN4core3ptr13drop_in_place17h01cc0c1a61e28d7bE+0x5f>
    769b:	4a 8d 3c 2b          	lea    (%rbx,%r13,1),%rdi
    769f:	48 81 c7 b0 01 00 00 	add    $0x1b0,%rdi
    76a6:	e8 c5 12 00 00       	callq  8970 <_ZN4core3ptr13drop_in_place17haf4a5e28c8305751E>
    76ab:	41 83 bc 1d d8 01 00 	cmpl   $0x2,0x1d8(%r13,%rbx,1)
    76b2:	00 02 
    76b4:	74 8a                	je     7640 <_ZN4core3ptr13drop_in_place17h01cc0c1a61e28d7bE+0x30>
    76b6:	4a 8d 3c 2b          	lea    (%rbx,%r13,1),%rdi
    76ba:	48 81 c7 d8 01 00 00 	add    $0x1d8,%rdi
    76c1:	e8 2a 0d 00 00       	callq  83f0 <_ZN4core3ptr13drop_in_place17h6c93f5e827fa85e2E>
    76c6:	e9 75 ff ff ff       	jmpq   7640 <_ZN4core3ptr13drop_in_place17h01cc0c1a61e28d7bE+0x30>
    76cb:	4d 8b 2e             	mov    (%r14),%r13
    76ce:	49 8b 46 08          	mov    0x8(%r14),%rax
    76d2:	48 85 c0             	test   %rax,%rax
    76d5:	74 2c                	je     7703 <_ZN4core3ptr13drop_in_place17h01cc0c1a61e28d7bE+0xf3>
    76d7:	4d 85 ed             	test   %r13,%r13
    76da:	74 27                	je     7703 <_ZN4core3ptr13drop_in_place17h01cc0c1a61e28d7bE+0xf3>
    76dc:	48 89 c1             	mov    %rax,%rcx
    76df:	48 c1 e1 09          	shl    $0x9,%rcx
    76e3:	48 8d 34 c1          	lea    (%rcx,%rax,8),%rsi
    76e7:	48 85 f6             	test   %rsi,%rsi
    76ea:	74 17                	je     7703 <_ZN4core3ptr13drop_in_place17h01cc0c1a61e28d7bE+0xf3>
    76ec:	ba 08 00 00 00       	mov    $0x8,%edx
    76f1:	4c 89 ef             	mov    %r13,%rdi
    76f4:	5b                   	pop    %rbx
    76f5:	41 5c                	pop    %r12
    76f7:	41 5d                	pop    %r13
    76f9:	41 5e                	pop    %r14
    76fb:	41 5f                	pop    %r15
    76fd:	ff 25 d5 14 04 00    	jmpq   *0x414d5(%rip)        # 48bd8 <_GLOBAL_OFFSET_TABLE_+0x290>
    7703:	5b                   	pop    %rbx
    7704:	41 5c                	pop    %r12
    7706:	41 5d                	pop    %r13
    7708:	41 5e                	pop    %r14
    770a:	41 5f                	pop    %r15
    770c:	c3                   	retq   
    770d:	49 89 c7             	mov    %rax,%r15
    7710:	4a 8d 3c 2b          	lea    (%rbx,%r13,1),%rdi
    7714:	48 81 c7 b8 00 00 00 	add    $0xb8,%rdi
    771b:	e8 50 0e 00 00       	callq  8570 <_ZN4core3ptr13drop_in_place17h7acd269f48c89330E>
    7720:	4a 8d 3c 2b          	lea    (%rbx,%r13,1),%rdi
    7724:	48 81 c7 b0 01 00 00 	add    $0x1b0,%rdi
    772b:	e8 00 0f 00 00       	callq  8630 <_ZN4core3ptr13drop_in_place17h809982d0deb5b018E>
    7730:	4a 8d 3c 2b          	lea    (%rbx,%r13,1),%rdi
    7734:	48 81 c7 d8 01 00 00 	add    $0x1d8,%rdi
    773b:	e8 30 06 00 00       	callq  7d70 <_ZN4core3ptr13drop_in_place17h2bb8cd073112f2edE>
    7740:	49 8d 84 24 f8 fd ff 	lea    -0x208(%r12),%rax
    7747:	ff 
    7748:	48 39 d8             	cmp    %rbx,%rax
    774b:	74 2c                	je     7779 <_ZN4core3ptr13drop_in_place17h01cc0c1a61e28d7bE+0x169>
    774d:	49 29 dc             	sub    %rbx,%r12
    7750:	49 81 c4 f8 fd ff ff 	add    $0xfffffffffffffdf8,%r12
    7757:	4c 01 eb             	add    %r13,%rbx
    775a:	48 81 c3 08 02 00 00 	add    $0x208,%rbx
    7761:	48 89 df             	mov    %rbx,%rdi
    7764:	e8 07 08 00 00       	callq  7f70 <_ZN4core3ptr13drop_in_place17h448eeb6698f5eda7E>
    7769:	48 81 c3 08 02 00 00 	add    $0x208,%rbx
    7770:	49 81 c4 f8 fd ff ff 	add    $0xfffffffffffffdf8,%r12
    7777:	75 e8                	jne    7761 <_ZN4core3ptr13drop_in_place17h01cc0c1a61e28d7bE+0x151>
    7779:	49 8b 3e             	mov    (%r14),%rdi
    777c:	49 8b 76 08          	mov    0x8(%r14),%rsi
    7780:	e8 bb 0b 00 00       	callq  8340 <_ZN4core3ptr13drop_in_place17h53b8ca145b401b15E>
    7785:	4c 89 ff             	mov    %r15,%rdi
    7788:	e8 f3 e8 ff ff       	callq  6080 <_Unwind_Resume@plt>
    778d:	0f 0b                	ud2    
    778f:	49 89 c7             	mov    %rax,%r15
    7792:	eb e5                	jmp    7779 <_ZN4core3ptr13drop_in_place17h01cc0c1a61e28d7bE+0x169>
    7794:	66 2e 0f 1f 84 00 00 	nopw   %cs:0x0(%rax,%rax,1)
    779b:	00 00 00 
    779e:	66 90                	xchg   %ax,%ax

00000000000077a0 <_ZN4core3ptr13drop_in_place17h04ee15e01291b0f8E>:
    77a0:	41 56                	push   %r14
    77a2:	53                   	push   %rbx
    77a3:	50                   	push   %rax
    77a4:	48 89 fb             	mov    %rdi,%rbx
    77a7:	48 8b 3f             	mov    (%rdi),%rdi
    77aa:	48 8b 43 08          	mov    0x8(%rbx),%rax
    77ae:	ff 10                	callq  *(%rax)
    77b0:	48 8b 43 08          	mov    0x8(%rbx),%rax
    77b4:	48 8b 70 08          	mov    0x8(%rax),%rsi
    77b8:	48 85 f6             	test   %rsi,%rsi
    77bb:	74 14                	je     77d1 <_ZN4core3ptr13drop_in_place17h04ee15e01291b0f8E+0x31>
    77bd:	48 8b 3b             	mov    (%rbx),%rdi
    77c0:	48 8b 50 10          	mov    0x10(%rax),%rdx
    77c4:	48 83 c4 08          	add    $0x8,%rsp
    77c8:	5b                   	pop    %rbx
    77c9:	41 5e                	pop    %r14
    77cb:	ff 25 07 14 04 00    	jmpq   *0x41407(%rip)        # 48bd8 <_GLOBAL_OFFSET_TABLE_+0x290>
    77d1:	48 83 c4 08          	add    $0x8,%rsp
    77d5:	5b                   	pop    %rbx
    77d6:	41 5e                	pop    %r14
    77d8:	c3                   	retq   
    77d9:	49 89 c6             	mov    %rax,%r14
    77dc:	48 8b 3b             	mov    (%rbx),%rdi
    77df:	48 8b 73 08          	mov    0x8(%rbx),%rsi
    77e3:	e8 58 3c 00 00       	callq  b440 <_ZN5alloc5alloc8box_free17h1f4a4987a41273f7E>
    77e8:	4c 89 f7             	mov    %r14,%rdi
    77eb:	e8 90 e8 ff ff       	callq  6080 <_Unwind_Resume@plt>
    77f0:	0f 0b                	ud2    
    77f2:	66 2e 0f 1f 84 00 00 	nopw   %cs:0x0(%rax,%rax,1)
    77f9:	00 00 00 
    77fc:	0f 1f 40 00          	nopl   0x0(%rax)

0000000000007800 <_ZN4core3ptr13drop_in_place17h0703ba08e75e6f47E>:
    7800:	ff 25 2a 14 04 00    	jmpq   *0x4142a(%rip)        # 48c30 <close@GLIBC_2.2.5>
    7806:	66 2e 0f 1f 84 00 00 	nopw   %cs:0x0(%rax,%rax,1)
    780d:	00 00 00 

0000000000007810 <_ZN4core3ptr13drop_in_place17h095188338503449eE>:
    7810:	41 56                	push   %r14
    7812:	53                   	push   %rbx
    7813:	50                   	push   %rax
    7814:	48 89 fb             	mov    %rdi,%rbx
    7817:	80 7f 08 00          	cmpb   $0x0,0x8(%rdi)
    781b:	75 12                	jne    782f <_ZN4core3ptr13drop_in_place17h095188338503449eE+0x1f>
    781d:	4c 8b 33             	mov    (%rbx),%r14
    7820:	48 8d 05 31 19 04 00 	lea    0x41931(%rip),%rax        # 49158 <_ZN3std9panicking11panic_count18GLOBAL_PANIC_COUNT17ha7171c20a3467953E>
    7827:	48 8b 00             	mov    (%rax),%rax
    782a:	48 85 c0             	test   %rax,%rax
    782d:	75 13                	jne    7842 <_ZN4core3ptr13drop_in_place17h095188338503449eE+0x32>
    782f:	48 8b 03             	mov    (%rbx),%rax
    7832:	48 8b 38             	mov    (%rax),%rdi
    7835:	48 83 c4 08          	add    $0x8,%rsp
    7839:	5b                   	pop    %rbx
    783a:	41 5e                	pop    %r14
    783c:	ff 25 36 15 04 00    	jmpq   *0x41536(%rip)        # 48d78 <pthread_mutex_unlock@GLIBC_2.2.5>
    7842:	ff 15 68 11 04 00    	callq  *0x41168(%rip)        # 489b0 <_GLOBAL_OFFSET_TABLE_+0x68>
    7848:	84 c0                	test   %al,%al
    784a:	75 e3                	jne    782f <_ZN4core3ptr13drop_in_place17h095188338503449eE+0x1f>
    784c:	41 c6 46 08 01       	movb   $0x1,0x8(%r14)
    7851:	eb dc                	jmp    782f <_ZN4core3ptr13drop_in_place17h095188338503449eE+0x1f>
    7853:	66 2e 0f 1f 84 00 00 	nopw   %cs:0x0(%rax,%rax,1)
    785a:	00 00 00 
    785d:	0f 1f 00             	nopl   (%rax)

0000000000007860 <_ZN4core3ptr13drop_in_place17h09bab29da12f4bd7E>:
    7860:	48 8b 77 08          	mov    0x8(%rdi),%rsi
    7864:	48 85 f6             	test   %rsi,%rsi
    7867:	74 14                	je     787d <_ZN4core3ptr13drop_in_place17h09bab29da12f4bd7E+0x1d>
    7869:	48 c1 e6 04          	shl    $0x4,%rsi
    786d:	74 0e                	je     787d <_ZN4core3ptr13drop_in_place17h09bab29da12f4bd7E+0x1d>
    786f:	48 8b 3f             	mov    (%rdi),%rdi
    7872:	ba 08 00 00 00       	mov    $0x8,%edx
    7877:	ff 25 5b 13 04 00    	jmpq   *0x4135b(%rip)        # 48bd8 <_GLOBAL_OFFSET_TABLE_+0x290>
    787d:	c3                   	retq   
    787e:	66 90                	xchg   %ax,%ax

0000000000007880 <_ZN4core3ptr13drop_in_place17h09d7e129d9fa78c2E>:
    7880:	41 57                	push   %r15
    7882:	41 56                	push   %r14
    7884:	53                   	push   %rbx
    7885:	48 89 fb             	mov    %rdi,%rbx
    7888:	8a 47 08             	mov    0x8(%rdi),%al
    788b:	3c 03                	cmp    $0x3,%al
    788d:	77 0a                	ja     7899 <_ZN4core3ptr13drop_in_place17h09d7e129d9fa78c2E+0x19>
    788f:	3c 02                	cmp    $0x2,%al
    7891:	74 06                	je     7899 <_ZN4core3ptr13drop_in_place17h09d7e129d9fa78c2E+0x19>
    7893:	5b                   	pop    %rbx
    7894:	41 5e                	pop    %r14
    7896:	41 5f                	pop    %r15
    7898:	c3                   	retq   
    7899:	4c 8b 7b 10          	mov    0x10(%rbx),%r15
    789d:	49 8b 3f             	mov    (%r15),%rdi
    78a0:	49 8b 47 08          	mov    0x8(%r15),%rax
    78a4:	ff 10                	callq  *(%rax)
    78a6:	49 8b 47 08          	mov    0x8(%r15),%rax
    78aa:	48 8b 70 08          	mov    0x8(%rax),%rsi
    78ae:	48 85 f6             	test   %rsi,%rsi
    78b1:	74 0d                	je     78c0 <_ZN4core3ptr13drop_in_place17h09d7e129d9fa78c2E+0x40>
    78b3:	49 8b 3f             	mov    (%r15),%rdi
    78b6:	48 8b 50 10          	mov    0x10(%rax),%rdx
    78ba:	ff 15 18 13 04 00    	callq  *0x41318(%rip)        # 48bd8 <_GLOBAL_OFFSET_TABLE_+0x290>
    78c0:	48 8b 7b 10          	mov    0x10(%rbx),%rdi
    78c4:	be 18 00 00 00       	mov    $0x18,%esi
    78c9:	ba 08 00 00 00       	mov    $0x8,%edx
    78ce:	5b                   	pop    %rbx
    78cf:	41 5e                	pop    %r14
    78d1:	41 5f                	pop    %r15
    78d3:	ff 25 ff 12 04 00    	jmpq   *0x412ff(%rip)        # 48bd8 <_GLOBAL_OFFSET_TABLE_+0x290>
    78d9:	49 89 c6             	mov    %rax,%r14
    78dc:	49 8b 3f             	mov    (%r15),%rdi
    78df:	49 8b 77 08          	mov    0x8(%r15),%rsi
    78e3:	e8 58 3b 00 00       	callq  b440 <_ZN5alloc5alloc8box_free17h1f4a4987a41273f7E>
    78e8:	48 8b 7b 10          	mov    0x10(%rbx),%rdi
    78ec:	e8 6f 3b 00 00       	callq  b460 <_ZN5alloc5alloc8box_free17h4e0e6c1158b88bb2E>
    78f1:	4c 89 f7             	mov    %r14,%rdi
    78f4:	e8 87 e7 ff ff       	callq  6080 <_Unwind_Resume@plt>
    78f9:	0f 0b                	ud2    
    78fb:	0f 1f 44 00 00       	nopl   0x0(%rax,%rax,1)

0000000000007900 <_ZN4core3ptr13drop_in_place17h0a65bf87ebf65615E>:
    7900:	48 8b 77 08          	mov    0x8(%rdi),%rsi
    7904:	48 85 f6             	test   %rsi,%rsi
    7907:	74 1c                	je     7925 <_ZN4core3ptr13drop_in_place17h0a65bf87ebf65615E+0x25>
    7909:	48 8b 3f             	mov    (%rdi),%rdi
    790c:	48 85 ff             	test   %rdi,%rdi
    790f:	74 14                	je     7925 <_ZN4core3ptr13drop_in_place17h0a65bf87ebf65615E+0x25>
    7911:	48 c1 e6 03          	shl    $0x3,%rsi
    7915:	48 85 f6             	test   %rsi,%rsi
    7918:	74 0b                	je     7925 <_ZN4core3ptr13drop_in_place17h0a65bf87ebf65615E+0x25>
    791a:	ba 08 00 00 00       	mov    $0x8,%edx
    791f:	ff 25 b3 12 04 00    	jmpq   *0x412b3(%rip)        # 48bd8 <_GLOBAL_OFFSET_TABLE_+0x290>
    7925:	c3                   	retq   
    7926:	66 2e 0f 1f 84 00 00 	nopw   %cs:0x0(%rax,%rax,1)
    792d:	00 00 00 

0000000000007930 <_ZN4core3ptr13drop_in_place17h0b8d481b627406b4E>:
    7930:	48 83 3f 00          	cmpq   $0x0,(%rdi)
    7934:	74 20                	je     7956 <_ZN4core3ptr13drop_in_place17h0b8d481b627406b4E+0x26>
    7936:	48 89 f8             	mov    %rdi,%rax
    7939:	48 8b 7f 08          	mov    0x8(%rdi),%rdi
    793d:	48 85 ff             	test   %rdi,%rdi
    7940:	74 14                	je     7956 <_ZN4core3ptr13drop_in_place17h0b8d481b627406b4E+0x26>
    7942:	48 8b 70 10          	mov    0x10(%rax),%rsi
    7946:	48 85 f6             	test   %rsi,%rsi
    7949:	74 0b                	je     7956 <_ZN4core3ptr13drop_in_place17h0b8d481b627406b4E+0x26>
    794b:	ba 01 00 00 00       	mov    $0x1,%edx
    7950:	ff 25 82 12 04 00    	jmpq   *0x41282(%rip)        # 48bd8 <_GLOBAL_OFFSET_TABLE_+0x290>
    7956:	c3                   	retq   
    7957:	66 0f 1f 84 00 00 00 	nopw   0x0(%rax,%rax,1)
    795e:	00 00 

0000000000007960 <_ZN4core3ptr13drop_in_place17h0fd139988bd3b41bE>:
    7960:	48 8b 07             	mov    (%rdi),%rax
    7963:	48 83 40 08 01       	addq   $0x1,0x8(%rax)
    7968:	c3                   	retq   
    7969:	0f 1f 80 00 00 00 00 	nopl   0x0(%rax)

0000000000007970 <_ZN4core3ptr13drop_in_place17h10cc017d6d533a9eE>:
    7970:	48 83 c7 08          	add    $0x8,%rdi
    7974:	e9 27 07 00 00       	jmpq   80a0 <_ZN4core3ptr13drop_in_place17h44cfb53de0695a15E>
    7979:	0f 1f 80 00 00 00 00 	nopl   0x0(%rax)

0000000000007980 <_ZN4core3ptr13drop_in_place17h126aeb8360a3f4d6E>:
    7980:	41 56                	push   %r14
    7982:	53                   	push   %rbx
    7983:	50                   	push   %rax
    7984:	48 89 fb             	mov    %rdi,%rbx
    7987:	80 7f 08 00          	cmpb   $0x0,0x8(%rdi)
    798b:	75 12                	jne    799f <_ZN4core3ptr13drop_in_place17h126aeb8360a3f4d6E+0x1f>
    798d:	4c 8b 33             	mov    (%rbx),%r14
    7990:	48 8d 05 c1 17 04 00 	lea    0x417c1(%rip),%rax        # 49158 <_ZN3std9panicking11panic_count18GLOBAL_PANIC_COUNT17ha7171c20a3467953E>
    7997:	48 8b 00             	mov    (%rax),%rax
    799a:	48 85 c0             	test   %rax,%rax
    799d:	75 13                	jne    79b2 <_ZN4core3ptr13drop_in_place17h126aeb8360a3f4d6E+0x32>
    799f:	48 8b 03             	mov    (%rbx),%rax
    79a2:	48 8b 38             	mov    (%rax),%rdi
    79a5:	48 83 c4 08          	add    $0x8,%rsp
    79a9:	5b                   	pop    %rbx
    79aa:	41 5e                	pop    %r14
    79ac:	ff 25 c6 13 04 00    	jmpq   *0x413c6(%rip)        # 48d78 <pthread_mutex_unlock@GLIBC_2.2.5>
    79b2:	ff 15 f8 0f 04 00    	callq  *0x40ff8(%rip)        # 489b0 <_GLOBAL_OFFSET_TABLE_+0x68>
    79b8:	84 c0                	test   %al,%al
    79ba:	75 e3                	jne    799f <_ZN4core3ptr13drop_in_place17h126aeb8360a3f4d6E+0x1f>
    79bc:	41 c6 46 08 01       	movb   $0x1,0x8(%r14)
    79c1:	eb dc                	jmp    799f <_ZN4core3ptr13drop_in_place17h126aeb8360a3f4d6E+0x1f>
    79c3:	66 2e 0f 1f 84 00 00 	nopw   %cs:0x0(%rax,%rax,1)
    79ca:	00 00 00 
    79cd:	0f 1f 00             	nopl   (%rax)

00000000000079d0 <_ZN4core3ptr13drop_in_place17h143c8394bff56d92E>:
    79d0:	48 8b 07             	mov    (%rdi),%rax
    79d3:	48 85 c0             	test   %rax,%rax
    79d6:	74 1a                	je     79f2 <_ZN4core3ptr13drop_in_place17h143c8394bff56d92E+0x22>
    79d8:	c6 00 00             	movb   $0x0,(%rax)
    79db:	48 8b 77 08          	mov    0x8(%rdi),%rsi
    79df:	48 85 f6             	test   %rsi,%rsi
    79e2:	74 0e                	je     79f2 <_ZN4core3ptr13drop_in_place17h143c8394bff56d92E+0x22>
    79e4:	48 8b 3f             	mov    (%rdi),%rdi
    79e7:	ba 01 00 00 00       	mov    $0x1,%edx
    79ec:	ff 25 e6 11 04 00    	jmpq   *0x411e6(%rip)        # 48bd8 <_GLOBAL_OFFSET_TABLE_+0x290>
    79f2:	c3                   	retq   
    79f3:	66 2e 0f 1f 84 00 00 	nopw   %cs:0x0(%rax,%rax,1)
    79fa:	00 00 00 
    79fd:	0f 1f 00             	nopl   (%rax)

0000000000007a00 <_ZN4core3ptr13drop_in_place17h162d426141ecbb96E>:
    7a00:	48 8d 3d b9 16 04 00 	lea    0x416b9(%rip),%rdi        # 490c0 <_ZN3std10sys_common9backtrace4lock4LOCK17h267e62a1999cd3e2E>
    7a07:	ff 25 6b 13 04 00    	jmpq   *0x4136b(%rip)        # 48d78 <pthread_mutex_unlock@GLIBC_2.2.5>
    7a0d:	0f 1f 00             	nopl   (%rax)

0000000000007a10 <_ZN4core3ptr13drop_in_place17h1703225680251a0fE>:
    7a10:	48 83 07 01          	addq   $0x1,(%rdi)
    7a14:	c3                   	retq   
    7a15:	66 2e 0f 1f 84 00 00 	nopw   %cs:0x0(%rax,%rax,1)
    7a1c:	00 00 00 
    7a1f:	90                   	nop

0000000000007a20 <_ZN4core3ptr13drop_in_place17h176e602e70b07ae3E>:
    7a20:	53                   	push   %rbx
    7a21:	48 89 fb             	mov    %rdi,%rbx
    7a24:	48 8b 3f             	mov    (%rdi),%rdi
    7a27:	48 85 ff             	test   %rdi,%rdi
    7a2a:	74 14                	je     7a40 <_ZN4core3ptr13drop_in_place17h176e602e70b07ae3E+0x20>
    7a2c:	48 8b 73 08          	mov    0x8(%rbx),%rsi
    7a30:	48 85 f6             	test   %rsi,%rsi
    7a33:	74 0b                	je     7a40 <_ZN4core3ptr13drop_in_place17h176e602e70b07ae3E+0x20>
    7a35:	ba 01 00 00 00       	mov    $0x1,%edx
    7a3a:	ff 15 98 11 04 00    	callq  *0x41198(%rip)        # 48bd8 <_GLOBAL_OFFSET_TABLE_+0x290>
    7a40:	48 8b 73 20          	mov    0x20(%rbx),%rsi
    7a44:	48 85 f6             	test   %rsi,%rsi
    7a47:	74 1b                	je     7a64 <_ZN4core3ptr13drop_in_place17h176e602e70b07ae3E+0x44>
    7a49:	48 8b 7b 18          	mov    0x18(%rbx),%rdi
    7a4d:	48 85 ff             	test   %rdi,%rdi
    7a50:	74 12                	je     7a64 <_ZN4core3ptr13drop_in_place17h176e602e70b07ae3E+0x44>
    7a52:	48 c1 e6 04          	shl    $0x4,%rsi
    7a56:	74 0c                	je     7a64 <_ZN4core3ptr13drop_in_place17h176e602e70b07ae3E+0x44>
    7a58:	ba 08 00 00 00       	mov    $0x8,%edx
    7a5d:	5b                   	pop    %rbx
    7a5e:	ff 25 74 11 04 00    	jmpq   *0x41174(%rip)        # 48bd8 <_GLOBAL_OFFSET_TABLE_+0x290>
    7a64:	5b                   	pop    %rbx
    7a65:	c3                   	retq   
    7a66:	66 2e 0f 1f 84 00 00 	nopw   %cs:0x0(%rax,%rax,1)
    7a6d:	00 00 00 

0000000000007a70 <_ZN4core3ptr13drop_in_place17h18adbfdfb542254aE>:
    7a70:	41 57                	push   %r15
    7a72:	41 56                	push   %r14
    7a74:	41 55                	push   %r13
    7a76:	41 54                	push   %r12
    7a78:	53                   	push   %rbx
    7a79:	49 89 fe             	mov    %rdi,%r14
    7a7c:	4c 8b 27             	mov    (%rdi),%r12
    7a7f:	4c 8b 7f 10          	mov    0x10(%rdi),%r15
    7a83:	4d 85 ff             	test   %r15,%r15
    7a86:	74 45                	je     7acd <_ZN4core3ptr13drop_in_place17h18adbfdfb542254aE+0x5d>
    7a88:	49 c1 e7 05          	shl    $0x5,%r15
    7a8c:	31 db                	xor    %ebx,%ebx
    7a8e:	4c 8d 2d eb f2 ff ff 	lea    -0xd15(%rip),%r13        # 6d80 <__rust_dealloc>
    7a95:	eb 12                	jmp    7aa9 <_ZN4core3ptr13drop_in_place17h18adbfdfb542254aE+0x39>
    7a97:	66 0f 1f 84 00 00 00 	nopw   0x0(%rax,%rax,1)
    7a9e:	00 00 
    7aa0:	48 83 c3 20          	add    $0x20,%rbx
    7aa4:	49 39 df             	cmp    %rbx,%r15
    7aa7:	74 21                	je     7aca <_ZN4core3ptr13drop_in_place17h18adbfdfb542254aE+0x5a>
    7aa9:	49 8b 44 1c 18       	mov    0x18(%r12,%rbx,1),%rax
    7aae:	48 c1 e0 03          	shl    $0x3,%rax
    7ab2:	48 8d 34 40          	lea    (%rax,%rax,2),%rsi
    7ab6:	48 85 f6             	test   %rsi,%rsi
    7ab9:	74 e5                	je     7aa0 <_ZN4core3ptr13drop_in_place17h18adbfdfb542254aE+0x30>
    7abb:	49 8b 7c 1c 10       	mov    0x10(%r12,%rbx,1),%rdi
    7ac0:	ba 08 00 00 00       	mov    $0x8,%edx
    7ac5:	41 ff d5             	callq  *%r13
    7ac8:	eb d6                	jmp    7aa0 <_ZN4core3ptr13drop_in_place17h18adbfdfb542254aE+0x30>
    7aca:	4d 8b 26             	mov    (%r14),%r12
    7acd:	49 8b 76 08          	mov    0x8(%r14),%rsi
    7ad1:	48 85 f6             	test   %rsi,%rsi
    7ad4:	74 22                	je     7af8 <_ZN4core3ptr13drop_in_place17h18adbfdfb542254aE+0x88>
    7ad6:	4d 85 e4             	test   %r12,%r12
    7ad9:	74 1d                	je     7af8 <_ZN4core3ptr13drop_in_place17h18adbfdfb542254aE+0x88>
    7adb:	48 c1 e6 05          	shl    $0x5,%rsi
    7adf:	74 17                	je     7af8 <_ZN4core3ptr13drop_in_place17h18adbfdfb542254aE+0x88>
    7ae1:	ba 08 00 00 00       	mov    $0x8,%edx
    7ae6:	4c 89 e7             	mov    %r12,%rdi
    7ae9:	5b                   	pop    %rbx
    7aea:	41 5c                	pop    %r12
    7aec:	41 5d                	pop    %r13
    7aee:	41 5e                	pop    %r14
    7af0:	41 5f                	pop    %r15
    7af2:	ff 25 e0 10 04 00    	jmpq   *0x410e0(%rip)        # 48bd8 <_GLOBAL_OFFSET_TABLE_+0x290>
    7af8:	5b                   	pop    %rbx
    7af9:	41 5c                	pop    %r12
    7afb:	41 5d                	pop    %r13
    7afd:	41 5e                	pop    %r14
    7aff:	41 5f                	pop    %r15
    7b01:	c3                   	retq   
    7b02:	66 2e 0f 1f 84 00 00 	nopw   %cs:0x0(%rax,%rax,1)
    7b09:	00 00 00 
    7b0c:	0f 1f 40 00          	nopl   0x0(%rax)

0000000000007b10 <_ZN4core3ptr13drop_in_place17h19a748d717f4b9c8E>:
    7b10:	55                   	push   %rbp
    7b11:	41 57                	push   %r15
    7b13:	41 56                	push   %r14
    7b15:	41 55                	push   %r13
    7b17:	41 54                	push   %r12
    7b19:	53                   	push   %rbx
    7b1a:	50                   	push   %rax
    7b1b:	49 89 fe             	mov    %rdi,%r14
    7b1e:	48 89 3c 24          	mov    %rdi,(%rsp)
    7b22:	48 8b 5f 10          	mov    0x10(%rdi),%rbx
    7b26:	4c 8b 67 18          	mov    0x18(%rdi),%r12
    7b2a:	4d 89 e7             	mov    %r12,%r15
    7b2d:	49 29 df             	sub    %rbx,%r15
    7b30:	74 57                	je     7b89 <_ZN4core3ptr13drop_in_place17h19a748d717f4b9c8E+0x79>
    7b32:	49 c1 ff 04          	sar    $0x4,%r15
    7b36:	49 c1 e7 04          	shl    $0x4,%r15
    7b3a:	49 83 c7 f0          	add    $0xfffffffffffffff0,%r15
    7b3e:	48 83 c3 10          	add    $0x10,%rbx
    7b42:	4c 8d 2d 37 f2 ff ff 	lea    -0xdc9(%rip),%r13        # 6d80 <__rust_dealloc>
    7b49:	eb 16                	jmp    7b61 <_ZN4core3ptr13drop_in_place17h19a748d717f4b9c8E+0x51>
    7b4b:	0f 1f 44 00 00       	nopl   0x0(%rax,%rax,1)
    7b50:	49 83 c7 f0          	add    $0xfffffffffffffff0,%r15
    7b54:	48 83 c3 10          	add    $0x10,%rbx
    7b58:	48 83 c5 10          	add    $0x10,%rbp
    7b5c:	4c 39 e5             	cmp    %r12,%rbp
    7b5f:	74 28                	je     7b89 <_ZN4core3ptr13drop_in_place17h19a748d717f4b9c8E+0x79>
    7b61:	48 8b 7b f0          	mov    -0x10(%rbx),%rdi
    7b65:	48 8b 43 f8          	mov    -0x8(%rbx),%rax
    7b69:	ff 10                	callq  *(%rax)
    7b6b:	48 8d 6b f0          	lea    -0x10(%rbx),%rbp
    7b6f:	48 8b 45 08          	mov    0x8(%rbp),%rax
    7b73:	48 8b 70 08          	mov    0x8(%rax),%rsi
    7b77:	48 85 f6             	test   %rsi,%rsi
    7b7a:	74 d4                	je     7b50 <_ZN4core3ptr13drop_in_place17h19a748d717f4b9c8E+0x40>
    7b7c:	48 8b 7b f0          	mov    -0x10(%rbx),%rdi
    7b80:	48 8b 50 10          	mov    0x10(%rax),%rdx
    7b84:	41 ff d5             	callq  *%r13
    7b87:	eb c7                	jmp    7b50 <_ZN4core3ptr13drop_in_place17h19a748d717f4b9c8E+0x40>
    7b89:	49 8b 76 08          	mov    0x8(%r14),%rsi
    7b8d:	48 85 f6             	test   %rsi,%rsi
    7b90:	74 14                	je     7ba6 <_ZN4core3ptr13drop_in_place17h19a748d717f4b9c8E+0x96>
    7b92:	48 c1 e6 04          	shl    $0x4,%rsi
    7b96:	74 0e                	je     7ba6 <_ZN4core3ptr13drop_in_place17h19a748d717f4b9c8E+0x96>
    7b98:	49 8b 3e             	mov    (%r14),%rdi
    7b9b:	ba 08 00 00 00       	mov    $0x8,%edx
    7ba0:	ff 15 32 10 04 00    	callq  *0x41032(%rip)        # 48bd8 <_GLOBAL_OFFSET_TABLE_+0x290>
    7ba6:	48 83 c4 08          	add    $0x8,%rsp
    7baa:	5b                   	pop    %rbx
    7bab:	41 5c                	pop    %r12
    7bad:	41 5d                	pop    %r13
    7baf:	41 5e                	pop    %r14
    7bb1:	41 5f                	pop    %r15
    7bb3:	5d                   	pop    %rbp
    7bb4:	c3                   	retq   
    7bb5:	49 89 c6             	mov    %rax,%r14
    7bb8:	48 8b 7b f0          	mov    -0x10(%rbx),%rdi
    7bbc:	48 8b 73 f8          	mov    -0x8(%rbx),%rsi
    7bc0:	e8 7b 38 00 00       	callq  b440 <_ZN5alloc5alloc8box_free17h1f4a4987a41273f7E>
    7bc5:	4d 85 ff             	test   %r15,%r15
    7bc8:	74 12                	je     7bdc <_ZN4core3ptr13drop_in_place17h19a748d717f4b9c8E+0xcc>
    7bca:	48 89 df             	mov    %rbx,%rdi
    7bcd:	e8 2e 06 00 00       	callq  8200 <_ZN4core3ptr13drop_in_place17h47aa9c84c21e0324E>
    7bd2:	48 83 c3 10          	add    $0x10,%rbx
    7bd6:	49 83 c7 f0          	add    $0xfffffffffffffff0,%r15
    7bda:	75 ee                	jne    7bca <_ZN4core3ptr13drop_in_place17h19a748d717f4b9c8E+0xba>
    7bdc:	48 89 e7             	mov    %rsp,%rdi
    7bdf:	e8 bc 0f 00 00       	callq  8ba0 <_ZN4core3ptr13drop_in_place17hc7512efbeb621170E>
    7be4:	4c 89 f7             	mov    %r14,%rdi
    7be7:	e8 94 e4 ff ff       	callq  6080 <_Unwind_Resume@plt>
    7bec:	0f 0b                	ud2    
    7bee:	49 89 c6             	mov    %rax,%r14
    7bf1:	eb e9                	jmp    7bdc <_ZN4core3ptr13drop_in_place17h19a748d717f4b9c8E+0xcc>
    7bf3:	66 2e 0f 1f 84 00 00 	nopw   %cs:0x0(%rax,%rax,1)
    7bfa:	00 00 00 
    7bfd:	0f 1f 00             	nopl   (%rax)

0000000000007c00 <_ZN4core3ptr13drop_in_place17h1adcb45fc9b253d9E>:
    7c00:	ff 25 0a 12 04 00    	jmpq   *0x4120a(%rip)        # 48e10 <munmap@GLIBC_2.2.5>
    7c06:	66 2e 0f 1f 84 00 00 	nopw   %cs:0x0(%rax,%rax,1)
    7c0d:	00 00 00 

0000000000007c10 <_ZN4core3ptr13drop_in_place17h1c3f3fbf729053b9E>:
    7c10:	83 7f 48 03          	cmpl   $0x3,0x48(%rdi)
    7c14:	74 21                	je     7c37 <_ZN4core3ptr13drop_in_place17h1c3f3fbf729053b9E+0x27>
    7c16:	48 8b 77 20          	mov    0x20(%rdi),%rsi
    7c1a:	48 85 f6             	test   %rsi,%rsi
    7c1d:	74 18                	je     7c37 <_ZN4core3ptr13drop_in_place17h1c3f3fbf729053b9E+0x27>
    7c1f:	48 c1 e6 03          	shl    $0x3,%rsi
    7c23:	48 85 f6             	test   %rsi,%rsi
    7c26:	74 0f                	je     7c37 <_ZN4core3ptr13drop_in_place17h1c3f3fbf729053b9E+0x27>
    7c28:	48 8b 7f 18          	mov    0x18(%rdi),%rdi
    7c2c:	ba 08 00 00 00       	mov    $0x8,%edx
    7c31:	ff 25 a1 0f 04 00    	jmpq   *0x40fa1(%rip)        # 48bd8 <_GLOBAL_OFFSET_TABLE_+0x290>
    7c37:	c3                   	retq   
    7c38:	0f 1f 84 00 00 00 00 	nopl   0x0(%rax,%rax,1)
    7c3f:	00 

0000000000007c40 <_ZN4core3ptr13drop_in_place17h1d9d9e7666ed1ae6E>:
    7c40:	48 83 3f 00          	cmpq   $0x0,(%rdi)
    7c44:	74 23                	je     7c69 <_ZN4core3ptr13drop_in_place17h1d9d9e7666ed1ae6E+0x29>
    7c46:	48 8b 77 10          	mov    0x10(%rdi),%rsi
    7c4a:	48 85 f6             	test   %rsi,%rsi
    7c4d:	74 1a                	je     7c69 <_ZN4core3ptr13drop_in_place17h1d9d9e7666ed1ae6E+0x29>
    7c4f:	48 8b 7f 08          	mov    0x8(%rdi),%rdi
    7c53:	48 85 ff             	test   %rdi,%rdi
    7c56:	74 11                	je     7c69 <_ZN4core3ptr13drop_in_place17h1d9d9e7666ed1ae6E+0x29>
    7c58:	48 c1 e6 04          	shl    $0x4,%rsi
    7c5c:	74 0b                	je     7c69 <_ZN4core3ptr13drop_in_place17h1d9d9e7666ed1ae6E+0x29>
    7c5e:	ba 08 00 00 00       	mov    $0x8,%edx
    7c63:	ff 25 6f 0f 04 00    	jmpq   *0x40f6f(%rip)        # 48bd8 <_GLOBAL_OFFSET_TABLE_+0x290>
    7c69:	c3                   	retq   
    7c6a:	66 0f 1f 44 00 00    	nopw   0x0(%rax,%rax,1)

0000000000007c70 <_ZN4core3ptr13drop_in_place17h1e7a61be2b450c92E>:
    7c70:	41 57                	push   %r15
    7c72:	41 56                	push   %r14
    7c74:	41 55                	push   %r13
    7c76:	41 54                	push   %r12
    7c78:	53                   	push   %rbx
    7c79:	49 89 fe             	mov    %rdi,%r14
    7c7c:	4c 8b 27             	mov    (%rdi),%r12
    7c7f:	48 8b 47 10          	mov    0x10(%rdi),%rax
    7c83:	48 85 c0             	test   %rax,%rax
    7c86:	74 65                	je     7ced <_ZN4core3ptr13drop_in_place17h1e7a61be2b450c92E+0x7d>
    7c88:	48 c1 e0 03          	shl    $0x3,%rax
    7c8c:	4c 8d 3c c0          	lea    (%rax,%rax,8),%r15
    7c90:	31 db                	xor    %ebx,%ebx
    7c92:	4c 8d 2d e7 f0 ff ff 	lea    -0xf19(%rip),%r13        # 6d80 <__rust_dealloc>
    7c99:	eb 0e                	jmp    7ca9 <_ZN4core3ptr13drop_in_place17h1e7a61be2b450c92E+0x39>
    7c9b:	0f 1f 44 00 00       	nopl   0x0(%rax,%rax,1)
    7ca0:	48 83 c3 48          	add    $0x48,%rbx
    7ca4:	49 39 df             	cmp    %rbx,%r15
    7ca7:	74 41                	je     7cea <_ZN4core3ptr13drop_in_place17h1e7a61be2b450c92E+0x7a>
    7ca9:	49 83 7c 1c 08 00    	cmpq   $0x0,0x8(%r12,%rbx,1)
    7caf:	75 ef                	jne    7ca0 <_ZN4core3ptr13drop_in_place17h1e7a61be2b450c92E+0x30>
    7cb1:	49 8b 44 1c 30       	mov    0x30(%r12,%rbx,1),%rax
    7cb6:	48 c1 e0 03          	shl    $0x3,%rax
    7cba:	48 8d 34 80          	lea    (%rax,%rax,4),%rsi
    7cbe:	48 85 f6             	test   %rsi,%rsi
    7cc1:	74 0d                	je     7cd0 <_ZN4core3ptr13drop_in_place17h1e7a61be2b450c92E+0x60>
    7cc3:	49 8b 7c 1c 28       	mov    0x28(%r12,%rbx,1),%rdi
    7cc8:	ba 08 00 00 00       	mov    $0x8,%edx
    7ccd:	41 ff d5             	callq  *%r13
    7cd0:	49 8b 74 1c 40       	mov    0x40(%r12,%rbx,1),%rsi
    7cd5:	48 c1 e6 05          	shl    $0x5,%rsi
    7cd9:	74 c5                	je     7ca0 <_ZN4core3ptr13drop_in_place17h1e7a61be2b450c92E+0x30>
    7cdb:	49 8b 7c 1c 38       	mov    0x38(%r12,%rbx,1),%rdi
    7ce0:	ba 08 00 00 00       	mov    $0x8,%edx
    7ce5:	41 ff d5             	callq  *%r13
    7ce8:	eb b6                	jmp    7ca0 <_ZN4core3ptr13drop_in_place17h1e7a61be2b450c92E+0x30>
    7cea:	4d 8b 26             	mov    (%r14),%r12
    7ced:	49 8b 46 08          	mov    0x8(%r14),%rax
    7cf1:	48 85 c0             	test   %rax,%rax
    7cf4:	74 29                	je     7d1f <_ZN4core3ptr13drop_in_place17h1e7a61be2b450c92E+0xaf>
    7cf6:	4d 85 e4             	test   %r12,%r12
    7cf9:	74 24                	je     7d1f <_ZN4core3ptr13drop_in_place17h1e7a61be2b450c92E+0xaf>
    7cfb:	48 c1 e0 03          	shl    $0x3,%rax
    7cff:	48 8d 34 c0          	lea    (%rax,%rax,8),%rsi
    7d03:	48 85 f6             	test   %rsi,%rsi
    7d06:	74 17                	je     7d1f <_ZN4core3ptr13drop_in_place17h1e7a61be2b450c92E+0xaf>
    7d08:	ba 08 00 00 00       	mov    $0x8,%edx
    7d0d:	4c 89 e7             	mov    %r12,%rdi
    7d10:	5b                   	pop    %rbx
    7d11:	41 5c                	pop    %r12
    7d13:	41 5d                	pop    %r13
    7d15:	41 5e                	pop    %r14
    7d17:	41 5f                	pop    %r15
    7d19:	ff 25 b9 0e 04 00    	jmpq   *0x40eb9(%rip)        # 48bd8 <_GLOBAL_OFFSET_TABLE_+0x290>
    7d1f:	5b                   	pop    %rbx
    7d20:	41 5c                	pop    %r12
    7d22:	41 5d                	pop    %r13
    7d24:	41 5e                	pop    %r14
    7d26:	41 5f                	pop    %r15
    7d28:	c3                   	retq   
    7d29:	0f 1f 80 00 00 00 00 	nopl   0x0(%rax)

0000000000007d30 <_ZN4core3ptr13drop_in_place17h2544f79b2af42655E>:
    7d30:	48 8b 3f             	mov    (%rdi),%rdi
    7d33:	ff 25 3f 10 04 00    	jmpq   *0x4103f(%rip)        # 48d78 <pthread_mutex_unlock@GLIBC_2.2.5>
    7d39:	0f 1f 80 00 00 00 00 	nopl   0x0(%rax)

0000000000007d40 <_ZN4core3ptr13drop_in_place17h29b26c749d74bcddE>:
    7d40:	48 8b 77 08          	mov    0x8(%rdi),%rsi
    7d44:	48 85 f6             	test   %rsi,%rsi
    7d47:	74 19                	je     7d62 <_ZN4core3ptr13drop_in_place17h29b26c749d74bcddE+0x22>
    7d49:	48 8b 3f             	mov    (%rdi),%rdi
    7d4c:	48 85 ff             	test   %rdi,%rdi
    7d4f:	74 11                	je     7d62 <_ZN4core3ptr13drop_in_place17h29b26c749d74bcddE+0x22>
    7d51:	48 c1 e6 06          	shl    $0x6,%rsi
    7d55:	74 0b                	je     7d62 <_ZN4core3ptr13drop_in_place17h29b26c749d74bcddE+0x22>
    7d57:	ba 08 00 00 00       	mov    $0x8,%edx
    7d5c:	ff 25 76 0e 04 00    	jmpq   *0x40e76(%rip)        # 48bd8 <_GLOBAL_OFFSET_TABLE_+0x290>
    7d62:	c3                   	retq   
    7d63:	66 2e 0f 1f 84 00 00 	nopw   %cs:0x0(%rax,%rax,1)
    7d6a:	00 00 00 
    7d6d:	0f 1f 00             	nopl   (%rax)

0000000000007d70 <_ZN4core3ptr13drop_in_place17h2bb8cd073112f2edE>:
    7d70:	83 3f 02             	cmpl   $0x2,(%rdi)
    7d73:	75 01                	jne    7d76 <_ZN4core3ptr13drop_in_place17h2bb8cd073112f2edE+0x6>
    7d75:	c3                   	retq   
    7d76:	e9 75 06 00 00       	jmpq   83f0 <_ZN4core3ptr13drop_in_place17h6c93f5e827fa85e2E>
    7d7b:	0f 1f 44 00 00       	nopl   0x0(%rax,%rax,1)

0000000000007d80 <_ZN4core3ptr13drop_in_place17h2f44b26d9aadd12dE>:
    7d80:	41 57                	push   %r15
    7d82:	41 56                	push   %r14
    7d84:	53                   	push   %rbx
    7d85:	80 3f 02             	cmpb   $0x2,(%rdi)
    7d88:	73 06                	jae    7d90 <_ZN4core3ptr13drop_in_place17h2f44b26d9aadd12dE+0x10>
    7d8a:	5b                   	pop    %rbx
    7d8b:	41 5e                	pop    %r14
    7d8d:	41 5f                	pop    %r15
    7d8f:	c3                   	retq   
    7d90:	49 89 ff             	mov    %rdi,%r15
    7d93:	48 8b 5f 08          	mov    0x8(%rdi),%rbx
    7d97:	48 8b 3b             	mov    (%rbx),%rdi
    7d9a:	48 8b 43 08          	mov    0x8(%rbx),%rax
    7d9e:	ff 10                	callq  *(%rax)
    7da0:	48 8b 43 08          	mov    0x8(%rbx),%rax
    7da4:	48 8b 70 08          	mov    0x8(%rax),%rsi
    7da8:	48 85 f6             	test   %rsi,%rsi
    7dab:	74 0d                	je     7dba <_ZN4core3ptr13drop_in_place17h2f44b26d9aadd12dE+0x3a>
    7dad:	48 8b 3b             	mov    (%rbx),%rdi
    7db0:	48 8b 50 10          	mov    0x10(%rax),%rdx
    7db4:	ff 15 1e 0e 04 00    	callq  *0x40e1e(%rip)        # 48bd8 <_GLOBAL_OFFSET_TABLE_+0x290>
    7dba:	49 8b 7f 08          	mov    0x8(%r15),%rdi
    7dbe:	be 18 00 00 00       	mov    $0x18,%esi
    7dc3:	ba 08 00 00 00       	mov    $0x8,%edx
    7dc8:	5b                   	pop    %rbx
    7dc9:	41 5e                	pop    %r14
    7dcb:	41 5f                	pop    %r15
    7dcd:	ff 25 05 0e 04 00    	jmpq   *0x40e05(%rip)        # 48bd8 <_GLOBAL_OFFSET_TABLE_+0x290>
    7dd3:	49 89 c6             	mov    %rax,%r14
    7dd6:	48 8b 3b             	mov    (%rbx),%rdi
    7dd9:	48 8b 73 08          	mov    0x8(%rbx),%rsi
    7ddd:	e8 5e 36 00 00       	callq  b440 <_ZN5alloc5alloc8box_free17h1f4a4987a41273f7E>
    7de2:	49 8b 7f 08          	mov    0x8(%r15),%rdi
    7de6:	e8 75 36 00 00       	callq  b460 <_ZN5alloc5alloc8box_free17h4e0e6c1158b88bb2E>
    7deb:	4c 89 f7             	mov    %r14,%rdi
    7dee:	e8 8d e2 ff ff       	callq  6080 <_Unwind_Resume@plt>
    7df3:	0f 0b                	ud2    
    7df5:	66 2e 0f 1f 84 00 00 	nopw   %cs:0x0(%rax,%rax,1)
    7dfc:	00 00 00 
    7dff:	90                   	nop

0000000000007e00 <_ZN4core3ptr13drop_in_place17h30b4b10da6bbc94bE>:
    7e00:	41 56                	push   %r14
    7e02:	53                   	push   %rbx
    7e03:	50                   	push   %rax
    7e04:	48 89 fb             	mov    %rdi,%rbx
    7e07:	48 8b 3f             	mov    (%rdi),%rdi
    7e0a:	48 85 ff             	test   %rdi,%rdi
    7e0d:	74 27                	je     7e36 <_ZN4core3ptr13drop_in_place17h30b4b10da6bbc94bE+0x36>
    7e0f:	48 8b 43 08          	mov    0x8(%rbx),%rax
    7e13:	ff 10                	callq  *(%rax)
    7e15:	48 8b 43 08          	mov    0x8(%rbx),%rax
    7e19:	48 8b 70 08          	mov    0x8(%rax),%rsi
    7e1d:	48 85 f6             	test   %rsi,%rsi
    7e20:	74 14                	je     7e36 <_ZN4core3ptr13drop_in_place17h30b4b10da6bbc94bE+0x36>
    7e22:	48 8b 3b             	mov    (%rbx),%rdi
    7e25:	48 8b 50 10          	mov    0x10(%rax),%rdx
    7e29:	48 83 c4 08          	add    $0x8,%rsp
    7e2d:	5b                   	pop    %rbx
    7e2e:	41 5e                	pop    %r14
    7e30:	ff 25 a2 0d 04 00    	jmpq   *0x40da2(%rip)        # 48bd8 <_GLOBAL_OFFSET_TABLE_+0x290>
    7e36:	48 83 c4 08          	add    $0x8,%rsp
    7e3a:	5b                   	pop    %rbx
    7e3b:	41 5e                	pop    %r14
    7e3d:	c3                   	retq   
    7e3e:	49 89 c6             	mov    %rax,%r14
    7e41:	48 8b 3b             	mov    (%rbx),%rdi
    7e44:	48 8b 73 08          	mov    0x8(%rbx),%rsi
    7e48:	e8 f3 35 00 00       	callq  b440 <_ZN5alloc5alloc8box_free17h1f4a4987a41273f7E>
    7e4d:	4c 89 f7             	mov    %r14,%rdi
    7e50:	e8 2b e2 ff ff       	callq  6080 <_Unwind_Resume@plt>
    7e55:	0f 0b                	ud2    
    7e57:	66 0f 1f 84 00 00 00 	nopw   0x0(%rax,%rax,1)
    7e5e:	00 00 

0000000000007e60 <_ZN4core3ptr13drop_in_place17h3a74902e7cd5ad79E>:
    7e60:	48 8b 47 08          	mov    0x8(%rdi),%rax
    7e64:	48 85 c0             	test   %rax,%rax
    7e67:	74 20                	je     7e89 <_ZN4core3ptr13drop_in_place17h3a74902e7cd5ad79E+0x29>
    7e69:	48 8b 3f             	mov    (%rdi),%rdi
    7e6c:	48 85 ff             	test   %rdi,%rdi
    7e6f:	74 18                	je     7e89 <_ZN4core3ptr13drop_in_place17h3a74902e7cd5ad79E+0x29>
    7e71:	48 c1 e0 03          	shl    $0x3,%rax
    7e75:	48 8d 34 80          	lea    (%rax,%rax,4),%rsi
    7e79:	48 85 f6             	test   %rsi,%rsi
    7e7c:	74 0b                	je     7e89 <_ZN4core3ptr13drop_in_place17h3a74902e7cd5ad79E+0x29>
    7e7e:	ba 08 00 00 00       	mov    $0x8,%edx
    7e83:	ff 25 4f 0d 04 00    	jmpq   *0x40d4f(%rip)        # 48bd8 <_GLOBAL_OFFSET_TABLE_+0x290>
    7e89:	c3                   	retq   
    7e8a:	66 0f 1f 44 00 00    	nopw   0x0(%rax,%rax,1)

0000000000007e90 <_ZN4core3ptr13drop_in_place17h3bcab0e48ed676a4E>:
    7e90:	48 8b 3f             	mov    (%rdi),%rdi
    7e93:	ff 25 df 0e 04 00    	jmpq   *0x40edf(%rip)        # 48d78 <pthread_mutex_unlock@GLIBC_2.2.5>
    7e99:	0f 1f 80 00 00 00 00 	nopl   0x0(%rax)

0000000000007ea0 <_ZN4core3ptr13drop_in_place17h3de4c3a129c4b888E>:
    7ea0:	48 8b 47 18          	mov    0x18(%rdi),%rax
    7ea4:	48 c1 e0 03          	shl    $0x3,%rax
    7ea8:	48 8d 34 40          	lea    (%rax,%rax,2),%rsi
    7eac:	48 85 f6             	test   %rsi,%rsi
    7eaf:	74 0f                	je     7ec0 <_ZN4core3ptr13drop_in_place17h3de4c3a129c4b888E+0x20>
    7eb1:	48 8b 7f 10          	mov    0x10(%rdi),%rdi
    7eb5:	ba 08 00 00 00       	mov    $0x8,%edx
    7eba:	ff 25 18 0d 04 00    	jmpq   *0x40d18(%rip)        # 48bd8 <_GLOBAL_OFFSET_TABLE_+0x290>
    7ec0:	c3                   	retq   
    7ec1:	66 2e 0f 1f 84 00 00 	nopw   %cs:0x0(%rax,%rax,1)
    7ec8:	00 00 00 
    7ecb:	0f 1f 44 00 00       	nopl   0x0(%rax,%rax,1)

0000000000007ed0 <_ZN4core3ptr13drop_in_place17h3decf781d4f23551E>:
    7ed0:	41 57                	push   %r15
    7ed2:	41 56                	push   %r14
    7ed4:	41 54                	push   %r12
    7ed6:	53                   	push   %rbx
    7ed7:	50                   	push   %rax
    7ed8:	49 89 fe             	mov    %rdi,%r14
    7edb:	48 8b 1f             	mov    (%rdi),%rbx
    7ede:	48 8b 47 10          	mov    0x10(%rdi),%rax
    7ee2:	48 85 c0             	test   %rax,%rax
    7ee5:	74 40                	je     7f27 <_ZN4core3ptr13drop_in_place17h3decf781d4f23551E+0x57>
    7ee7:	48 8d 04 40          	lea    (%rax,%rax,2),%rax
    7eeb:	4c 8d 3c c3          	lea    (%rbx,%rax,8),%r15
    7eef:	4c 8d 25 8a ee ff ff 	lea    -0x1176(%rip),%r12        # 6d80 <__rust_dealloc>
    7ef6:	eb 11                	jmp    7f09 <_ZN4core3ptr13drop_in_place17h3decf781d4f23551E+0x39>
    7ef8:	0f 1f 84 00 00 00 00 	nopl   0x0(%rax,%rax,1)
    7eff:	00 
    7f00:	48 83 c3 18          	add    $0x18,%rbx
    7f04:	4c 39 fb             	cmp    %r15,%rbx
    7f07:	74 1b                	je     7f24 <_ZN4core3ptr13drop_in_place17h3decf781d4f23551E+0x54>
    7f09:	48 8b 3b             	mov    (%rbx),%rdi
    7f0c:	48 85 ff             	test   %rdi,%rdi
    7f0f:	74 ef                	je     7f00 <_ZN4core3ptr13drop_in_place17h3decf781d4f23551E+0x30>
    7f11:	48 8b 73 08          	mov    0x8(%rbx),%rsi
    7f15:	48 85 f6             	test   %rsi,%rsi
    7f18:	74 e6                	je     7f00 <_ZN4core3ptr13drop_in_place17h3decf781d4f23551E+0x30>
    7f1a:	ba 01 00 00 00       	mov    $0x1,%edx
    7f1f:	41 ff d4             	callq  *%r12
    7f22:	eb dc                	jmp    7f00 <_ZN4core3ptr13drop_in_place17h3decf781d4f23551E+0x30>
    7f24:	49 8b 1e             	mov    (%r14),%rbx
    7f27:	49 8b 46 08          	mov    0x8(%r14),%rax
    7f2b:	48 85 c0             	test   %rax,%rax
    7f2e:	74 2b                	je     7f5b <_ZN4core3ptr13drop_in_place17h3decf781d4f23551E+0x8b>
    7f30:	48 85 db             	test   %rbx,%rbx
    7f33:	74 26                	je     7f5b <_ZN4core3ptr13drop_in_place17h3decf781d4f23551E+0x8b>
    7f35:	48 c1 e0 03          	shl    $0x3,%rax
    7f39:	48 8d 34 40          	lea    (%rax,%rax,2),%rsi
    7f3d:	48 85 f6             	test   %rsi,%rsi
    7f40:	74 19                	je     7f5b <_ZN4core3ptr13drop_in_place17h3decf781d4f23551E+0x8b>
    7f42:	ba 08 00 00 00       	mov    $0x8,%edx
    7f47:	48 89 df             	mov    %rbx,%rdi
    7f4a:	48 83 c4 08          	add    $0x8,%rsp
    7f4e:	5b                   	pop    %rbx
    7f4f:	41 5c                	pop    %r12
    7f51:	41 5e                	pop    %r14
    7f53:	41 5f                	pop    %r15
    7f55:	ff 25 7d 0c 04 00    	jmpq   *0x40c7d(%rip)        # 48bd8 <_GLOBAL_OFFSET_TABLE_+0x290>
    7f5b:	48 83 c4 08          	add    $0x8,%rsp
    7f5f:	5b                   	pop    %rbx
    7f60:	41 5c                	pop    %r12
    7f62:	41 5e                	pop    %r14
    7f64:	41 5f                	pop    %r15
    7f66:	c3                   	retq   
    7f67:	66 0f 1f 84 00 00 00 	nopw   0x0(%rax,%rax,1)
    7f6e:	00 00 

0000000000007f70 <_ZN4core3ptr13drop_in_place17h448eeb6698f5eda7E>:
    7f70:	41 56                	push   %r14
    7f72:	53                   	push   %rbx
    7f73:	50                   	push   %rax
    7f74:	48 89 fb             	mov    %rdi,%rbx
    7f77:	48 83 c7 40          	add    $0x40,%rdi
    7f7b:	e8 70 07 00 00       	callq  86f0 <_ZN4core3ptr13drop_in_place17ha8f855a39b7d9edaE>
    7f80:	83 bb 60 01 00 00 2e 	cmpl   $0x2e,0x160(%rbx)
    7f87:	75 1a                	jne    7fa3 <_ZN4core3ptr13drop_in_place17h448eeb6698f5eda7E+0x33>
    7f89:	83 bb b0 01 00 00 02 	cmpl   $0x2,0x1b0(%rbx)
    7f90:	75 26                	jne    7fb8 <_ZN4core3ptr13drop_in_place17h448eeb6698f5eda7E+0x48>
    7f92:	83 bb d8 01 00 00 02 	cmpl   $0x2,0x1d8(%rbx)
    7f99:	75 32                	jne    7fcd <_ZN4core3ptr13drop_in_place17h448eeb6698f5eda7E+0x5d>
    7f9b:	48 83 c4 08          	add    $0x8,%rsp
    7f9f:	5b                   	pop    %rbx
    7fa0:	41 5e                	pop    %r14
    7fa2:	c3                   	retq   
    7fa3:	48 8d bb b8 00 00 00 	lea    0xb8(%rbx),%rdi
    7faa:	e8 01 0e 00 00       	callq  8db0 <_ZN4core3ptr13drop_in_place17he129aa9fa1d19118E>
    7faf:	83 bb b0 01 00 00 02 	cmpl   $0x2,0x1b0(%rbx)
    7fb6:	74 da                	je     7f92 <_ZN4core3ptr13drop_in_place17h448eeb6698f5eda7E+0x22>
    7fb8:	48 8d bb b0 01 00 00 	lea    0x1b0(%rbx),%rdi
    7fbf:	e8 ac 09 00 00       	callq  8970 <_ZN4core3ptr13drop_in_place17haf4a5e28c8305751E>
    7fc4:	83 bb d8 01 00 00 02 	cmpl   $0x2,0x1d8(%rbx)
    7fcb:	74 ce                	je     7f9b <_ZN4core3ptr13drop_in_place17h448eeb6698f5eda7E+0x2b>
    7fcd:	48 81 c3 d8 01 00 00 	add    $0x1d8,%rbx
    7fd4:	48 89 df             	mov    %rbx,%rdi
    7fd7:	48 83 c4 08          	add    $0x8,%rsp
    7fdb:	5b                   	pop    %rbx
    7fdc:	41 5e                	pop    %r14
    7fde:	e9 0d 04 00 00       	jmpq   83f0 <_ZN4core3ptr13drop_in_place17h6c93f5e827fa85e2E>
    7fe3:	49 89 c6             	mov    %rax,%r14
    7fe6:	48 8d bb b8 00 00 00 	lea    0xb8(%rbx),%rdi
    7fed:	e8 7e 05 00 00       	callq  8570 <_ZN4core3ptr13drop_in_place17h7acd269f48c89330E>
    7ff2:	48 8d bb b0 01 00 00 	lea    0x1b0(%rbx),%rdi
    7ff9:	e8 32 06 00 00       	callq  8630 <_ZN4core3ptr13drop_in_place17h809982d0deb5b018E>
    7ffe:	48 81 c3 d8 01 00 00 	add    $0x1d8,%rbx
    8005:	48 89 df             	mov    %rbx,%rdi
    8008:	e8 63 fd ff ff       	callq  7d70 <_ZN4core3ptr13drop_in_place17h2bb8cd073112f2edE>
    800d:	4c 89 f7             	mov    %r14,%rdi
    8010:	e8 6b e0 ff ff       	callq  6080 <_Unwind_Resume@plt>
    8015:	0f 0b                	ud2    
    8017:	66 0f 1f 84 00 00 00 	nopw   0x0(%rax,%rax,1)
    801e:	00 00 

0000000000008020 <_ZN4core3ptr13drop_in_place17h44cea5287ecafec0E>:
    8020:	41 57                	push   %r15
    8022:	41 56                	push   %r14
    8024:	53                   	push   %rbx
    8025:	48 89 fb             	mov    %rdi,%rbx
    8028:	8a 07                	mov    (%rdi),%al
    802a:	3c 03                	cmp    $0x3,%al
    802c:	77 0a                	ja     8038 <_ZN4core3ptr13drop_in_place17h44cea5287ecafec0E+0x18>
    802e:	3c 02                	cmp    $0x2,%al
    8030:	74 06                	je     8038 <_ZN4core3ptr13drop_in_place17h44cea5287ecafec0E+0x18>
    8032:	5b                   	pop    %rbx
    8033:	41 5e                	pop    %r14
    8035:	41 5f                	pop    %r15
    8037:	c3                   	retq   
    8038:	4c 8b 7b 08          	mov    0x8(%rbx),%r15
    803c:	49 8b 3f             	mov    (%r15),%rdi
    803f:	49 8b 47 08          	mov    0x8(%r15),%rax
    8043:	ff 10                	callq  *(%rax)
    8045:	49 8b 47 08          	mov    0x8(%r15),%rax
    8049:	48 8b 70 08          	mov    0x8(%rax),%rsi
    804d:	48 85 f6             	test   %rsi,%rsi
    8050:	74 0d                	je     805f <_ZN4core3ptr13drop_in_place17h44cea5287ecafec0E+0x3f>
    8052:	49 8b 3f             	mov    (%r15),%rdi
    8055:	48 8b 50 10          	mov    0x10(%rax),%rdx
    8059:	ff 15 79 0b 04 00    	callq  *0x40b79(%rip)        # 48bd8 <_GLOBAL_OFFSET_TABLE_+0x290>
    805f:	48 8b 7b 08          	mov    0x8(%rbx),%rdi
    8063:	be 18 00 00 00       	mov    $0x18,%esi
    8068:	ba 08 00 00 00       	mov    $0x8,%edx
    806d:	5b                   	pop    %rbx
    806e:	41 5e                	pop    %r14
    8070:	41 5f                	pop    %r15
    8072:	ff 25 60 0b 04 00    	jmpq   *0x40b60(%rip)        # 48bd8 <_GLOBAL_OFFSET_TABLE_+0x290>
    8078:	49 89 c6             	mov    %rax,%r14
    807b:	49 8b 3f             	mov    (%r15),%rdi
    807e:	49 8b 77 08          	mov    0x8(%r15),%rsi
    8082:	e8 b9 33 00 00       	callq  b440 <_ZN5alloc5alloc8box_free17h1f4a4987a41273f7E>
    8087:	48 8b 7b 08          	mov    0x8(%rbx),%rdi
    808b:	e8 d0 33 00 00       	callq  b460 <_ZN5alloc5alloc8box_free17h4e0e6c1158b88bb2E>
    8090:	4c 89 f7             	mov    %r14,%rdi
    8093:	e8 e8 df ff ff       	callq  6080 <_Unwind_Resume@plt>
    8098:	0f 0b                	ud2    
    809a:	66 0f 1f 44 00 00    	nopw   0x0(%rax,%rax,1)

00000000000080a0 <_ZN4core3ptr13drop_in_place17h44cfb53de0695a15E>:
    80a0:	41 57                	push   %r15
    80a2:	41 56                	push   %r14
    80a4:	41 54                	push   %r12
    80a6:	53                   	push   %rbx
    80a7:	50                   	push   %rax
    80a8:	49 89 fe             	mov    %rdi,%r14
    80ab:	48 8b 77 08          	mov    0x8(%rdi),%rsi
    80af:	48 85 f6             	test   %rsi,%rsi
    80b2:	74 19                	je     80cd <_ZN4core3ptr13drop_in_place17h44cfb53de0695a15E+0x2d>
    80b4:	49 8b 3e             	mov    (%r14),%rdi
    80b7:	48 85 ff             	test   %rdi,%rdi
    80ba:	74 11                	je     80cd <_ZN4core3ptr13drop_in_place17h44cfb53de0695a15E+0x2d>
    80bc:	48 c1 e6 05          	shl    $0x5,%rsi
    80c0:	74 0b                	je     80cd <_ZN4core3ptr13drop_in_place17h44cfb53de0695a15E+0x2d>
    80c2:	ba 08 00 00 00       	mov    $0x8,%edx
    80c7:	ff 15 0b 0b 04 00    	callq  *0x40b0b(%rip)        # 48bd8 <_GLOBAL_OFFSET_TABLE_+0x290>
    80cd:	49 8d 7e 18          	lea    0x18(%r14),%rdi
    80d1:	e8 3a f5 ff ff       	callq  7610 <_ZN4core3ptr13drop_in_place17h01cc0c1a61e28d7bE>
    80d6:	49 8b 86 48 01 00 00 	mov    0x148(%r14),%rax
    80dd:	48 85 c0             	test   %rax,%rax
    80e0:	74 24                	je     8106 <_ZN4core3ptr13drop_in_place17h44cfb53de0695a15E+0x66>
    80e2:	49 8b be 40 01 00 00 	mov    0x140(%r14),%rdi
    80e9:	48 85 ff             	test   %rdi,%rdi
    80ec:	74 18                	je     8106 <_ZN4core3ptr13drop_in_place17h44cfb53de0695a15E+0x66>
    80ee:	48 c1 e0 03          	shl    $0x3,%rax
    80f2:	48 8d 34 40          	lea    (%rax,%rax,2),%rsi
    80f6:	48 85 f6             	test   %rsi,%rsi
    80f9:	74 0b                	je     8106 <_ZN4core3ptr13drop_in_place17h44cfb53de0695a15E+0x66>
    80fb:	ba 08 00 00 00       	mov    $0x8,%edx
    8100:	ff 15 d2 0a 04 00    	callq  *0x40ad2(%rip)        # 48bd8 <_GLOBAL_OFFSET_TABLE_+0x290>
    8106:	49 8b be 58 01 00 00 	mov    0x158(%r14),%rdi
    810d:	49 8b b6 60 01 00 00 	mov    0x160(%r14),%rsi
    8114:	ff 15 f6 0c 04 00    	callq  *0x40cf6(%rip)        # 48e10 <munmap@GLIBC_2.2.5>
    811a:	49 8b 9e 68 01 00 00 	mov    0x168(%r14),%rbx
    8121:	49 8b 86 78 01 00 00 	mov    0x178(%r14),%rax
    8128:	48 85 c0             	test   %rax,%rax
    812b:	74 3e                	je     816b <_ZN4core3ptr13drop_in_place17h44cfb53de0695a15E+0xcb>
    812d:	48 8d 04 40          	lea    (%rax,%rax,2),%rax
    8131:	4c 8d 3c c3          	lea    (%rbx,%rax,8),%r15
    8135:	4c 8d 25 44 ec ff ff 	lea    -0x13bc(%rip),%r12        # 6d80 <__rust_dealloc>
    813c:	eb 0b                	jmp    8149 <_ZN4core3ptr13drop_in_place17h44cfb53de0695a15E+0xa9>
    813e:	66 90                	xchg   %ax,%ax
    8140:	48 83 c3 18          	add    $0x18,%rbx
    8144:	4c 39 fb             	cmp    %r15,%rbx
    8147:	74 1b                	je     8164 <_ZN4core3ptr13drop_in_place17h44cfb53de0695a15E+0xc4>
    8149:	48 8b 3b             	mov    (%rbx),%rdi
    814c:	48 85 ff             	test   %rdi,%rdi
    814f:	74 ef                	je     8140 <_ZN4core3ptr13drop_in_place17h44cfb53de0695a15E+0xa0>
    8151:	48 8b 73 08          	mov    0x8(%rbx),%rsi
    8155:	48 85 f6             	test   %rsi,%rsi
    8158:	74 e6                	je     8140 <_ZN4core3ptr13drop_in_place17h44cfb53de0695a15E+0xa0>
    815a:	ba 01 00 00 00       	mov    $0x1,%edx
    815f:	41 ff d4             	callq  *%r12
    8162:	eb dc                	jmp    8140 <_ZN4core3ptr13drop_in_place17h44cfb53de0695a15E+0xa0>
    8164:	49 8b 9e 68 01 00 00 	mov    0x168(%r14),%rbx
    816b:	49 8b 86 70 01 00 00 	mov    0x170(%r14),%rax
    8172:	48 85 c0             	test   %rax,%rax
    8175:	74 2b                	je     81a2 <_ZN4core3ptr13drop_in_place17h44cfb53de0695a15E+0x102>
    8177:	48 85 db             	test   %rbx,%rbx
    817a:	74 26                	je     81a2 <_ZN4core3ptr13drop_in_place17h44cfb53de0695a15E+0x102>
    817c:	48 c1 e0 03          	shl    $0x3,%rax
    8180:	48 8d 34 40          	lea    (%rax,%rax,2),%rsi
    8184:	48 85 f6             	test   %rsi,%rsi
    8187:	74 19                	je     81a2 <_ZN4core3ptr13drop_in_place17h44cfb53de0695a15E+0x102>
    8189:	ba 08 00 00 00       	mov    $0x8,%edx
    818e:	48 89 df             	mov    %rbx,%rdi
    8191:	48 83 c4 08          	add    $0x8,%rsp
    8195:	5b                   	pop    %rbx
    8196:	41 5c                	pop    %r12
    8198:	41 5e                	pop    %r14
    819a:	41 5f                	pop    %r15
    819c:	ff 25 36 0a 04 00    	jmpq   *0x40a36(%rip)        # 48bd8 <_GLOBAL_OFFSET_TABLE_+0x290>
    81a2:	48 83 c4 08          	add    $0x8,%rsp
    81a6:	5b                   	pop    %rbx
    81a7:	41 5c                	pop    %r12
    81a9:	41 5e                	pop    %r14
    81ab:	41 5f                	pop    %r15
    81ad:	c3                   	retq   
    81ae:	48 89 c3             	mov    %rax,%rbx
    81b1:	49 8d be 00 01 00 00 	lea    0x100(%r14),%rdi
    81b8:	e8 d3 00 00 00       	callq  8290 <_ZN4core3ptr13drop_in_place17h4b947af3b868c85eE>
    81bd:	49 8b be 58 01 00 00 	mov    0x158(%r14),%rdi
    81c4:	49 8b b6 60 01 00 00 	mov    0x160(%r14),%rsi
    81cb:	e8 30 fa ff ff       	callq  7c00 <_ZN4core3ptr13drop_in_place17h1adcb45fc9b253d9E>
    81d0:	49 81 c6 68 01 00 00 	add    $0x168,%r14
    81d7:	4c 89 f7             	mov    %r14,%rdi
    81da:	e8 e1 08 00 00       	callq  8ac0 <_ZN4core3ptr13drop_in_place17hbee9d297071be767E>
    81df:	48 89 df             	mov    %rbx,%rdi
    81e2:	e8 99 de ff ff       	callq  6080 <_Unwind_Resume@plt>
    81e7:	0f 0b                	ud2    
    81e9:	0f 1f 80 00 00 00 00 	nopl   0x0(%rax)

00000000000081f0 <_ZN4core3ptr13drop_in_place17h45d6fd38063c96e4E>:
    81f0:	48 8b 47 08          	mov    0x8(%rdi),%rax
    81f4:	48 8b 4f 10          	mov    0x10(%rdi),%rcx
    81f8:	48 89 08             	mov    %rcx,(%rax)
    81fb:	c3                   	retq   
    81fc:	0f 1f 40 00          	nopl   0x0(%rax)

0000000000008200 <_ZN4core3ptr13drop_in_place17h47aa9c84c21e0324E>:
    8200:	41 56                	push   %r14
    8202:	53                   	push   %rbx
    8203:	50                   	push   %rax
    8204:	48 89 fb             	mov    %rdi,%rbx
    8207:	48 8b 3f             	mov    (%rdi),%rdi
    820a:	48 8b 43 08          	mov    0x8(%rbx),%rax
    820e:	ff 10                	callq  *(%rax)
    8210:	48 8b 43 08          	mov    0x8(%rbx),%rax
    8214:	48 8b 70 08          	mov    0x8(%rax),%rsi
    8218:	48 85 f6             	test   %rsi,%rsi
    821b:	74 14                	je     8231 <_ZN4core3ptr13drop_in_place17h47aa9c84c21e0324E+0x31>
    821d:	48 8b 3b             	mov    (%rbx),%rdi
    8220:	48 8b 50 10          	mov    0x10(%rax),%rdx
    8224:	48 83 c4 08          	add    $0x8,%rsp
    8228:	5b                   	pop    %rbx
    8229:	41 5e                	pop    %r14
    822b:	ff 25 a7 09 04 00    	jmpq   *0x409a7(%rip)        # 48bd8 <_GLOBAL_OFFSET_TABLE_+0x290>
    8231:	48 83 c4 08          	add    $0x8,%rsp
    8235:	5b                   	pop    %rbx
    8236:	41 5e                	pop    %r14
    8238:	c3                   	retq   
    8239:	49 89 c6             	mov    %rax,%r14
    823c:	48 8b 3b             	mov    (%rbx),%rdi
    823f:	48 8b 73 08          	mov    0x8(%rbx),%rsi
    8243:	e8 f8 31 00 00       	callq  b440 <_ZN5alloc5alloc8box_free17h1f4a4987a41273f7E>
    8248:	4c 89 f7             	mov    %r14,%rdi
    824b:	e8 30 de ff ff       	callq  6080 <_Unwind_Resume@plt>
    8250:	0f 0b                	ud2    
    8252:	66 2e 0f 1f 84 00 00 	nopw   %cs:0x0(%rax,%rax,1)
    8259:	00 00 00 
    825c:	0f 1f 40 00          	nopl   0x0(%rax)

0000000000008260 <_ZN4core3ptr13drop_in_place17h482f4f197fa42282E>:
    8260:	53                   	push   %rbx
    8261:	48 89 fb             	mov    %rdi,%rbx
    8264:	48 8b 3f             	mov    (%rdi),%rdi
    8267:	ff 15 33 09 04 00    	callq  *0x40933(%rip)        # 48ba0 <pthread_mutex_destroy@GLIBC_2.2.5>
    826d:	48 8b 3b             	mov    (%rbx),%rdi
    8270:	be 28 00 00 00       	mov    $0x28,%esi
    8275:	ba 08 00 00 00       	mov    $0x8,%edx
    827a:	5b                   	pop    %rbx
    827b:	ff 25 57 09 04 00    	jmpq   *0x40957(%rip)        # 48bd8 <_GLOBAL_OFFSET_TABLE_+0x290>
    8281:	66 2e 0f 1f 84 00 00 	nopw   %cs:0x0(%rax,%rax,1)
    8288:	00 00 00 
    828b:	0f 1f 44 00 00       	nopl   0x0(%rax,%rax,1)

0000000000008290 <_ZN4core3ptr13drop_in_place17h4b947af3b868c85eE>:
    8290:	48 8b 47 48          	mov    0x48(%rdi),%rax
    8294:	48 85 c0             	test   %rax,%rax
    8297:	74 21                	je     82ba <_ZN4core3ptr13drop_in_place17h4b947af3b868c85eE+0x2a>
    8299:	48 8b 7f 40          	mov    0x40(%rdi),%rdi
    829d:	48 85 ff             	test   %rdi,%rdi
    82a0:	74 18                	je     82ba <_ZN4core3ptr13drop_in_place17h4b947af3b868c85eE+0x2a>
    82a2:	48 c1 e0 03          	shl    $0x3,%rax
    82a6:	48 8d 34 40          	lea    (%rax,%rax,2),%rsi
    82aa:	48 85 f6             	test   %rsi,%rsi
    82ad:	74 0b                	je     82ba <_ZN4core3ptr13drop_in_place17h4b947af3b868c85eE+0x2a>
    82af:	ba 08 00 00 00       	mov    $0x8,%edx
    82b4:	ff 25 1e 09 04 00    	jmpq   *0x4091e(%rip)        # 48bd8 <_GLOBAL_OFFSET_TABLE_+0x290>
    82ba:	c3                   	retq   
    82bb:	0f 1f 44 00 00       	nopl   0x0(%rax,%rax,1)

00000000000082c0 <_ZN4core3ptr13drop_in_place17h50c9a5fbf1fdde6bE>:
    82c0:	48 8b 07             	mov    (%rdi),%rax
    82c3:	48 85 c0             	test   %rax,%rax
    82c6:	74 0c                	je     82d4 <_ZN4core3ptr13drop_in_place17h50c9a5fbf1fdde6bE+0x14>
    82c8:	f0 48 83 28 01       	lock subq $0x1,(%rax)
    82cd:	75 05                	jne    82d4 <_ZN4core3ptr13drop_in_place17h50c9a5fbf1fdde6bE+0x14>
    82cf:	e9 bc 30 00 00       	jmpq   b390 <_ZN5alloc4sync12Arc$LT$T$GT$9drop_slow17h2be82c68ed00e38dE>
    82d4:	c3                   	retq   
    82d5:	66 2e 0f 1f 84 00 00 	nopw   %cs:0x0(%rax,%rax,1)
    82dc:	00 00 00 
    82df:	90                   	nop

00000000000082e0 <_ZN4core3ptr13drop_in_place17h514e3ef81526efabE>:
    82e0:	41 56                	push   %r14
    82e2:	53                   	push   %rbx
    82e3:	50                   	push   %rax
    82e4:	48 89 fb             	mov    %rdi,%rbx
    82e7:	48 83 c7 38          	add    $0x38,%rdi
    82eb:	e8 00 04 00 00       	callq  86f0 <_ZN4core3ptr13drop_in_place17ha8f855a39b7d9edaE>
    82f0:	83 bb 58 01 00 00 2e 	cmpl   $0x2e,0x158(%rbx)
    82f7:	75 08                	jne    8301 <_ZN4core3ptr13drop_in_place17h514e3ef81526efabE+0x21>
    82f9:	48 83 c4 08          	add    $0x8,%rsp
    82fd:	5b                   	pop    %rbx
    82fe:	41 5e                	pop    %r14
    8300:	c3                   	retq   
    8301:	48 81 c3 b0 00 00 00 	add    $0xb0,%rbx
    8308:	48 89 df             	mov    %rbx,%rdi
    830b:	48 83 c4 08          	add    $0x8,%rsp
    830f:	5b                   	pop    %rbx
    8310:	41 5e                	pop    %r14
    8312:	e9 99 0a 00 00       	jmpq   8db0 <_ZN4core3ptr13drop_in_place17he129aa9fa1d19118E>
    8317:	49 89 c6             	mov    %rax,%r14
    831a:	48 81 c3 b0 00 00 00 	add    $0xb0,%rbx
    8321:	48 89 df             	mov    %rbx,%rdi
    8324:	e8 47 02 00 00       	callq  8570 <_ZN4core3ptr13drop_in_place17h7acd269f48c89330E>
    8329:	4c 89 f7             	mov    %r14,%rdi
    832c:	e8 4f dd ff ff       	callq  6080 <_Unwind_Resume@plt>
    8331:	0f 0b                	ud2    
    8333:	66 2e 0f 1f 84 00 00 	nopw   %cs:0x0(%rax,%rax,1)
    833a:	00 00 00 
    833d:	0f 1f 00             	nopl   (%rax)

0000000000008340 <_ZN4core3ptr13drop_in_place17h53b8ca145b401b15E>:
    8340:	48 85 f6             	test   %rsi,%rsi
    8343:	74 20                	je     8365 <_ZN4core3ptr13drop_in_place17h53b8ca145b401b15E+0x25>
    8345:	48 85 ff             	test   %rdi,%rdi
    8348:	74 1b                	je     8365 <_ZN4core3ptr13drop_in_place17h53b8ca145b401b15E+0x25>
    834a:	48 89 f0             	mov    %rsi,%rax
    834d:	48 c1 e0 09          	shl    $0x9,%rax
    8351:	48 8d 34 f0          	lea    (%rax,%rsi,8),%rsi
    8355:	48 85 f6             	test   %rsi,%rsi
    8358:	74 0b                	je     8365 <_ZN4core3ptr13drop_in_place17h53b8ca145b401b15E+0x25>
    835a:	ba 08 00 00 00       	mov    $0x8,%edx
    835f:	ff 25 73 08 04 00    	jmpq   *0x40873(%rip)        # 48bd8 <_GLOBAL_OFFSET_TABLE_+0x290>
    8365:	c3                   	retq   
    8366:	66 2e 0f 1f 84 00 00 	nopw   %cs:0x0(%rax,%rax,1)
    836d:	00 00 00 

0000000000008370 <_ZN4core3ptr13drop_in_place17h5e4fa70300bbe762E>:
    8370:	e9 3b 0a 00 00       	jmpq   8db0 <_ZN4core3ptr13drop_in_place17he129aa9fa1d19118E>
    8375:	66 2e 0f 1f 84 00 00 	nopw   %cs:0x0(%rax,%rax,1)
    837c:	00 00 00 
    837f:	90                   	nop

0000000000008380 <_ZN4core3ptr13drop_in_place17h5fbcc78f88b53dc4E>:
    8380:	48 89 f8             	mov    %rdi,%rax
    8383:	48 8b 3f             	mov    (%rdi),%rdi
    8386:	48 85 ff             	test   %rdi,%rdi
    8389:	74 14                	je     839f <_ZN4core3ptr13drop_in_place17h5fbcc78f88b53dc4E+0x1f>
    838b:	48 8b 70 08          	mov    0x8(%rax),%rsi
    838f:	48 85 f6             	test   %rsi,%rsi
    8392:	74 0b                	je     839f <_ZN4core3ptr13drop_in_place17h5fbcc78f88b53dc4E+0x1f>
    8394:	ba 01 00 00 00       	mov    $0x1,%edx
    8399:	ff 25 39 08 04 00    	jmpq   *0x40839(%rip)        # 48bd8 <_GLOBAL_OFFSET_TABLE_+0x290>
    839f:	c3                   	retq   

00000000000083a0 <_ZN4core3ptr13drop_in_place17h67f329fd5de5e5bcE>:
    83a0:	48 89 f8             	mov    %rdi,%rax
    83a3:	48 8b 3f             	mov    (%rdi),%rdi
    83a6:	48 85 ff             	test   %rdi,%rdi
    83a9:	74 14                	je     83bf <_ZN4core3ptr13drop_in_place17h67f329fd5de5e5bcE+0x1f>
    83ab:	48 8b 70 08          	mov    0x8(%rax),%rsi
    83af:	48 85 f6             	test   %rsi,%rsi
    83b2:	74 0b                	je     83bf <_ZN4core3ptr13drop_in_place17h67f329fd5de5e5bcE+0x1f>
    83b4:	ba 01 00 00 00       	mov    $0x1,%edx
    83b9:	ff 25 19 08 04 00    	jmpq   *0x40819(%rip)        # 48bd8 <_GLOBAL_OFFSET_TABLE_+0x290>
    83bf:	c3                   	retq   

00000000000083c0 <_ZN4core3ptr13drop_in_place17h6bfd198d3ca4a2d0E>:
    83c0:	48 8b 77 08          	mov    0x8(%rdi),%rsi
    83c4:	48 85 f6             	test   %rsi,%rsi
    83c7:	74 19                	je     83e2 <_ZN4core3ptr13drop_in_place17h6bfd198d3ca4a2d0E+0x22>
    83c9:	48 8b 3f             	mov    (%rdi),%rdi
    83cc:	48 85 ff             	test   %rdi,%rdi
    83cf:	74 11                	je     83e2 <_ZN4core3ptr13drop_in_place17h6bfd198d3ca4a2d0E+0x22>
    83d1:	48 c1 e6 05          	shl    $0x5,%rsi
    83d5:	74 0b                	je     83e2 <_ZN4core3ptr13drop_in_place17h6bfd198d3ca4a2d0E+0x22>
    83d7:	ba 08 00 00 00       	mov    $0x8,%edx
    83dc:	ff 25 f6 07 04 00    	jmpq   *0x407f6(%rip)        # 48bd8 <_GLOBAL_OFFSET_TABLE_+0x290>
    83e2:	c3                   	retq   
    83e3:	66 2e 0f 1f 84 00 00 	nopw   %cs:0x0(%rax,%rax,1)
    83ea:	00 00 00 
    83ed:	0f 1f 00             	nopl   (%rax)

00000000000083f0 <_ZN4core3ptr13drop_in_place17h6c93f5e827fa85e2E>:
    83f0:	41 57                	push   %r15
    83f2:	41 56                	push   %r14
    83f4:	41 55                	push   %r13
    83f6:	41 54                	push   %r12
    83f8:	53                   	push   %rbx
    83f9:	48 83 3f 00          	cmpq   $0x0,(%rdi)
    83fd:	74 0a                	je     8409 <_ZN4core3ptr13drop_in_place17h6c93f5e827fa85e2E+0x19>
    83ff:	5b                   	pop    %rbx
    8400:	41 5c                	pop    %r12
    8402:	41 5d                	pop    %r13
    8404:	41 5e                	pop    %r14
    8406:	41 5f                	pop    %r15
    8408:	c3                   	retq   
    8409:	49 89 fe             	mov    %rdi,%r14
    840c:	48 8b 47 10          	mov    0x10(%rdi),%rax
    8410:	48 85 c0             	test   %rax,%rax
    8413:	0f 84 81 00 00 00    	je     849a <_ZN4core3ptr13drop_in_place17h6c93f5e827fa85e2E+0xaa>
    8419:	4d 8b 66 08          	mov    0x8(%r14),%r12
    841d:	48 c1 e0 03          	shl    $0x3,%rax
    8421:	4c 8d 3c c0          	lea    (%rax,%rax,8),%r15
    8425:	31 db                	xor    %ebx,%ebx
    8427:	4c 8d 2d 52 e9 ff ff 	lea    -0x16ae(%rip),%r13        # 6d80 <__rust_dealloc>
    842e:	eb 09                	jmp    8439 <_ZN4core3ptr13drop_in_place17h6c93f5e827fa85e2E+0x49>
    8430:	48 83 c3 48          	add    $0x48,%rbx
    8434:	49 39 df             	cmp    %rbx,%r15
    8437:	74 41                	je     847a <_ZN4core3ptr13drop_in_place17h6c93f5e827fa85e2E+0x8a>
    8439:	49 83 7c 1c 08 00    	cmpq   $0x0,0x8(%r12,%rbx,1)
    843f:	75 ef                	jne    8430 <_ZN4core3ptr13drop_in_place17h6c93f5e827fa85e2E+0x40>
    8441:	49 8b 44 1c 30       	mov    0x30(%r12,%rbx,1),%rax
    8446:	48 c1 e0 03          	shl    $0x3,%rax
    844a:	48 8d 34 80          	lea    (%rax,%rax,4),%rsi
    844e:	48 85 f6             	test   %rsi,%rsi
    8451:	74 0d                	je     8460 <_ZN4core3ptr13drop_in_place17h6c93f5e827fa85e2E+0x70>
    8453:	49 8b 7c 1c 28       	mov    0x28(%r12,%rbx,1),%rdi
    8458:	ba 08 00 00 00       	mov    $0x8,%edx
    845d:	41 ff d5             	callq  *%r13
    8460:	49 8b 74 1c 40       	mov    0x40(%r12,%rbx,1),%rsi
    8465:	48 c1 e6 05          	shl    $0x5,%rsi
    8469:	74 c5                	je     8430 <_ZN4core3ptr13drop_in_place17h6c93f5e827fa85e2E+0x40>
    846b:	49 8b 7c 1c 38       	mov    0x38(%r12,%rbx,1),%rdi
    8470:	ba 08 00 00 00       	mov    $0x8,%edx
    8475:	41 ff d5             	callq  *%r13
    8478:	eb b6                	jmp    8430 <_ZN4core3ptr13drop_in_place17h6c93f5e827fa85e2E+0x40>
    847a:	49 8b 46 10          	mov    0x10(%r14),%rax
    847e:	48 c1 e0 03          	shl    $0x3,%rax
    8482:	48 8d 34 c0          	lea    (%rax,%rax,8),%rsi
    8486:	48 85 f6             	test   %rsi,%rsi
    8489:	74 0f                	je     849a <_ZN4core3ptr13drop_in_place17h6c93f5e827fa85e2E+0xaa>
    848b:	49 8b 7e 08          	mov    0x8(%r14),%rdi
    848f:	ba 08 00 00 00       	mov    $0x8,%edx
    8494:	ff 15 3e 07 04 00    	callq  *0x4073e(%rip)        # 48bd8 <_GLOBAL_OFFSET_TABLE_+0x290>
    849a:	49 8b 46 20          	mov    0x20(%r14),%rax
    849e:	48 c1 e0 03          	shl    $0x3,%rax
    84a2:	48 8d 34 40          	lea    (%rax,%rax,2),%rsi
    84a6:	48 85 f6             	test   %rsi,%rsi
    84a9:	0f 84 50 ff ff ff    	je     83ff <_ZN4core3ptr13drop_in_place17h6c93f5e827fa85e2E+0xf>
    84af:	49 8b 7e 18          	mov    0x18(%r14),%rdi
    84b3:	ba 08 00 00 00       	mov    $0x8,%edx
    84b8:	5b                   	pop    %rbx
    84b9:	41 5c                	pop    %r12
    84bb:	41 5d                	pop    %r13
    84bd:	41 5e                	pop    %r14
    84bf:	41 5f                	pop    %r15
    84c1:	ff 25 11 07 04 00    	jmpq   *0x40711(%rip)        # 48bd8 <_GLOBAL_OFFSET_TABLE_+0x290>
    84c7:	66 0f 1f 84 00 00 00 	nopw   0x0(%rax,%rax,1)
    84ce:	00 00 

00000000000084d0 <_ZN4core3ptr13drop_in_place17h723b6b37a46f17abE>:
    84d0:	41 57                	push   %r15
    84d2:	41 56                	push   %r14
    84d4:	41 54                	push   %r12
    84d6:	53                   	push   %rbx
    84d7:	50                   	push   %rax
    84d8:	49 89 fe             	mov    %rdi,%r14
    84db:	48 8b 1f             	mov    (%rdi),%rbx
    84de:	48 8b 47 10          	mov    0x10(%rdi),%rax
    84e2:	48 85 c0             	test   %rax,%rax
    84e5:	74 40                	je     8527 <_ZN4core3ptr13drop_in_place17h723b6b37a46f17abE+0x57>
    84e7:	48 8d 04 40          	lea    (%rax,%rax,2),%rax
    84eb:	4c 8d 3c c3          	lea    (%rbx,%rax,8),%r15
    84ef:	4c 8d 25 8a e8 ff ff 	lea    -0x1776(%rip),%r12        # 6d80 <__rust_dealloc>
    84f6:	eb 11                	jmp    8509 <_ZN4core3ptr13drop_in_place17h723b6b37a46f17abE+0x39>
    84f8:	0f 1f 84 00 00 00 00 	nopl   0x0(%rax,%rax,1)
    84ff:	00 
    8500:	48 83 c3 18          	add    $0x18,%rbx
    8504:	4c 39 fb             	cmp    %r15,%rbx
    8507:	74 1b                	je     8524 <_ZN4core3ptr13drop_in_place17h723b6b37a46f17abE+0x54>
    8509:	48 8b 3b             	mov    (%rbx),%rdi
    850c:	48 85 ff             	test   %rdi,%rdi
    850f:	74 ef                	je     8500 <_ZN4core3ptr13drop_in_place17h723b6b37a46f17abE+0x30>
    8511:	48 8b 73 08          	mov    0x8(%rbx),%rsi
    8515:	48 85 f6             	test   %rsi,%rsi
    8518:	74 e6                	je     8500 <_ZN4core3ptr13drop_in_place17h723b6b37a46f17abE+0x30>
    851a:	ba 01 00 00 00       	mov    $0x1,%edx
    851f:	41 ff d4             	callq  *%r12
    8522:	eb dc                	jmp    8500 <_ZN4core3ptr13drop_in_place17h723b6b37a46f17abE+0x30>
    8524:	49 8b 1e             	mov    (%r14),%rbx
    8527:	49 8b 46 08          	mov    0x8(%r14),%rax
    852b:	48 85 c0             	test   %rax,%rax
    852e:	74 2b                	je     855b <_ZN4core3ptr13drop_in_place17h723b6b37a46f17abE+0x8b>
    8530:	48 85 db             	test   %rbx,%rbx
    8533:	74 26                	je     855b <_ZN4core3ptr13drop_in_place17h723b6b37a46f17abE+0x8b>
    8535:	48 c1 e0 03          	shl    $0x3,%rax
    8539:	48 8d 34 40          	lea    (%rax,%rax,2),%rsi
    853d:	48 85 f6             	test   %rsi,%rsi
    8540:	74 19                	je     855b <_ZN4core3ptr13drop_in_place17h723b6b37a46f17abE+0x8b>
    8542:	ba 08 00 00 00       	mov    $0x8,%edx
    8547:	48 89 df             	mov    %rbx,%rdi
    854a:	48 83 c4 08          	add    $0x8,%rsp
    854e:	5b                   	pop    %rbx
    854f:	41 5c                	pop    %r12
    8551:	41 5e                	pop    %r14
    8553:	41 5f                	pop    %r15
    8555:	ff 25 7d 06 04 00    	jmpq   *0x4067d(%rip)        # 48bd8 <_GLOBAL_OFFSET_TABLE_+0x290>
    855b:	48 83 c4 08          	add    $0x8,%rsp
    855f:	5b                   	pop    %rbx
    8560:	41 5c                	pop    %r12
    8562:	41 5e                	pop    %r14
    8564:	41 5f                	pop    %r15
    8566:	c3                   	retq   
    8567:	66 0f 1f 84 00 00 00 	nopw   0x0(%rax,%rax,1)
    856e:	00 00 

0000000000008570 <_ZN4core3ptr13drop_in_place17h7acd269f48c89330E>:
    8570:	83 bf a8 00 00 00 2e 	cmpl   $0x2e,0xa8(%rdi)
    8577:	75 01                	jne    857a <_ZN4core3ptr13drop_in_place17h7acd269f48c89330E+0xa>
    8579:	c3                   	retq   
    857a:	e9 31 08 00 00       	jmpq   8db0 <_ZN4core3ptr13drop_in_place17he129aa9fa1d19118E>
    857f:	90                   	nop

0000000000008580 <_ZN4core3ptr13drop_in_place17h7b7b43e094f0773aE>:
    8580:	53                   	push   %rbx
    8581:	48 83 7f 08 00       	cmpq   $0x0,0x8(%rdi)
    8586:	74 02                	je     858a <_ZN4core3ptr13drop_in_place17h7b7b43e094f0773aE+0xa>
    8588:	5b                   	pop    %rbx
    8589:	c3                   	retq   
    858a:	48 89 fb             	mov    %rdi,%rbx
    858d:	48 8b 47 30          	mov    0x30(%rdi),%rax
    8591:	48 c1 e0 03          	shl    $0x3,%rax
    8595:	48 8d 34 80          	lea    (%rax,%rax,4),%rsi
    8599:	48 85 f6             	test   %rsi,%rsi
    859c:	74 0f                	je     85ad <_ZN4core3ptr13drop_in_place17h7b7b43e094f0773aE+0x2d>
    859e:	48 8b 7b 28          	mov    0x28(%rbx),%rdi
    85a2:	ba 08 00 00 00       	mov    $0x8,%edx
    85a7:	ff 15 2b 06 04 00    	callq  *0x4062b(%rip)        # 48bd8 <_GLOBAL_OFFSET_TABLE_+0x290>
    85ad:	48 8b 73 40          	mov    0x40(%rbx),%rsi
    85b1:	48 c1 e6 05          	shl    $0x5,%rsi
    85b5:	74 d1                	je     8588 <_ZN4core3ptr13drop_in_place17h7b7b43e094f0773aE+0x8>
    85b7:	48 8b 7b 38          	mov    0x38(%rbx),%rdi
    85bb:	ba 08 00 00 00       	mov    $0x8,%edx
    85c0:	5b                   	pop    %rbx
    85c1:	ff 25 11 06 04 00    	jmpq   *0x40611(%rip)        # 48bd8 <_GLOBAL_OFFSET_TABLE_+0x290>
    85c7:	66 0f 1f 84 00 00 00 	nopw   0x0(%rax,%rax,1)
    85ce:	00 00 

00000000000085d0 <_ZN4core3ptr13drop_in_place17h7d0e810390db6734E>:
    85d0:	48 89 f8             	mov    %rdi,%rax
    85d3:	48 8b 7f 08          	mov    0x8(%rdi),%rdi
    85d7:	48 85 ff             	test   %rdi,%rdi
    85da:	74 14                	je     85f0 <_ZN4core3ptr13drop_in_place17h7d0e810390db6734E+0x20>
    85dc:	48 8b 70 10          	mov    0x10(%rax),%rsi
    85e0:	48 85 f6             	test   %rsi,%rsi
    85e3:	74 0b                	je     85f0 <_ZN4core3ptr13drop_in_place17h7d0e810390db6734E+0x20>
    85e5:	ba 01 00 00 00       	mov    $0x1,%edx
    85ea:	ff 25 e8 05 04 00    	jmpq   *0x405e8(%rip)        # 48bd8 <_GLOBAL_OFFSET_TABLE_+0x290>
    85f0:	c3                   	retq   
    85f1:	66 2e 0f 1f 84 00 00 	nopw   %cs:0x0(%rax,%rax,1)
    85f8:	00 00 00 
    85fb:	0f 1f 44 00 00       	nopl   0x0(%rax,%rax,1)

0000000000008600 <_ZN4core3ptr13drop_in_place17h7d5d618da9d42e43E>:
    8600:	48 8b 47 08          	mov    0x8(%rdi),%rax
    8604:	48 85 c0             	test   %rax,%rax
    8607:	74 20                	je     8629 <_ZN4core3ptr13drop_in_place17h7d5d618da9d42e43E+0x29>
    8609:	48 8b 3f             	mov    (%rdi),%rdi
    860c:	48 85 ff             	test   %rdi,%rdi
    860f:	74 18                	je     8629 <_ZN4core3ptr13drop_in_place17h7d5d618da9d42e43E+0x29>
    8611:	48 c1 e0 03          	shl    $0x3,%rax
    8615:	48 8d 34 40          	lea    (%rax,%rax,2),%rsi
    8619:	48 85 f6             	test   %rsi,%rsi
    861c:	74 0b                	je     8629 <_ZN4core3ptr13drop_in_place17h7d5d618da9d42e43E+0x29>
    861e:	ba 08 00 00 00       	mov    $0x8,%edx
    8623:	ff 25 af 05 04 00    	jmpq   *0x405af(%rip)        # 48bd8 <_GLOBAL_OFFSET_TABLE_+0x290>
    8629:	c3                   	retq   
    862a:	66 0f 1f 44 00 00    	nopw   0x0(%rax,%rax,1)

0000000000008630 <_ZN4core3ptr13drop_in_place17h809982d0deb5b018E>:
    8630:	83 3f 02             	cmpl   $0x2,(%rdi)
    8633:	75 01                	jne    8636 <_ZN4core3ptr13drop_in_place17h809982d0deb5b018E+0x6>
    8635:	c3                   	retq   
    8636:	e9 35 03 00 00       	jmpq   8970 <_ZN4core3ptr13drop_in_place17haf4a5e28c8305751E>
    863b:	0f 1f 44 00 00       	nopl   0x0(%rax,%rax,1)

0000000000008640 <_ZN4core3ptr13drop_in_place17h835e03498f855044E>:
    8640:	48 8b 47 18          	mov    0x18(%rdi),%rax
    8644:	f0 48 83 28 01       	lock subq $0x1,(%rax)
    8649:	75 09                	jne    8654 <_ZN4core3ptr13drop_in_place17h835e03498f855044E+0x14>
    864b:	48 83 c7 18          	add    $0x18,%rdi
    864f:	e9 3c 2d 00 00       	jmpq   b390 <_ZN5alloc4sync12Arc$LT$T$GT$9drop_slow17h2be82c68ed00e38dE>
    8654:	c3                   	retq   
    8655:	66 2e 0f 1f 84 00 00 	nopw   %cs:0x0(%rax,%rax,1)
    865c:	00 00 00 
    865f:	90                   	nop

0000000000008660 <_ZN4core3ptr13drop_in_place17h864561bdf7bc415aE>:
    8660:	48 89 f8             	mov    %rdi,%rax
    8663:	48 8b 3f             	mov    (%rdi),%rdi
    8666:	48 85 ff             	test   %rdi,%rdi
    8669:	74 14                	je     867f <_ZN4core3ptr13drop_in_place17h864561bdf7bc415aE+0x1f>
    866b:	48 8b 70 08          	mov    0x8(%rax),%rsi
    866f:	48 85 f6             	test   %rsi,%rsi
    8672:	74 0b                	je     867f <_ZN4core3ptr13drop_in_place17h864561bdf7bc415aE+0x1f>
    8674:	ba 01 00 00 00       	mov    $0x1,%edx
    8679:	ff 25 59 05 04 00    	jmpq   *0x40559(%rip)        # 48bd8 <_GLOBAL_OFFSET_TABLE_+0x290>
    867f:	c3                   	retq   

0000000000008680 <_ZN4core3ptr13drop_in_place17h90168507ce0427afE>:
    8680:	83 3f 02             	cmpl   $0x2,(%rdi)
    8683:	74 14                	je     8699 <_ZN4core3ptr13drop_in_place17h90168507ce0427afE+0x19>
    8685:	48 8b 47 18          	mov    0x18(%rdi),%rax
    8689:	f0 48 83 28 01       	lock subq $0x1,(%rax)
    868e:	75 09                	jne    8699 <_ZN4core3ptr13drop_in_place17h90168507ce0427afE+0x19>
    8690:	48 83 c7 18          	add    $0x18,%rdi
    8694:	e9 f7 2c 00 00       	jmpq   b390 <_ZN5alloc4sync12Arc$LT$T$GT$9drop_slow17h2be82c68ed00e38dE>
    8699:	c3                   	retq   
    869a:	66 0f 1f 44 00 00    	nopw   0x0(%rax,%rax,1)

00000000000086a0 <_ZN4core3ptr13drop_in_place17h9172c1af77e11552E>:
    86a0:	48 85 f6             	test   %rsi,%rsi
    86a3:	74 1c                	je     86c1 <_ZN4core3ptr13drop_in_place17h9172c1af77e11552E+0x21>
    86a5:	48 85 ff             	test   %rdi,%rdi
    86a8:	74 17                	je     86c1 <_ZN4core3ptr13drop_in_place17h9172c1af77e11552E+0x21>
    86aa:	48 69 f6 88 01 00 00 	imul   $0x188,%rsi,%rsi
    86b1:	48 85 f6             	test   %rsi,%rsi
    86b4:	74 0b                	je     86c1 <_ZN4core3ptr13drop_in_place17h9172c1af77e11552E+0x21>
    86b6:	ba 08 00 00 00       	mov    $0x8,%edx
    86bb:	ff 25 17 05 04 00    	jmpq   *0x40517(%rip)        # 48bd8 <_GLOBAL_OFFSET_TABLE_+0x290>
    86c1:	c3                   	retq   
    86c2:	66 2e 0f 1f 84 00 00 	nopw   %cs:0x0(%rax,%rax,1)
    86c9:	00 00 00 
    86cc:	0f 1f 40 00          	nopl   0x0(%rax)

00000000000086d0 <_ZN4core3ptr13drop_in_place17ha67c4af84d943c3bE>:
    86d0:	48 8b 07             	mov    (%rdi),%rax
    86d3:	48 8b 4f 08          	mov    0x8(%rdi),%rcx
    86d7:	48 8b 50 10          	mov    0x10(%rax),%rdx
    86db:	48 89 51 10          	mov    %rdx,0x10(%rcx)
    86df:	0f 10 00             	movups (%rax),%xmm0
    86e2:	0f 11 01             	movups %xmm0,(%rcx)
    86e5:	c3                   	retq   
    86e6:	66 2e 0f 1f 84 00 00 	nopw   %cs:0x0(%rax,%rax,1)
    86ed:	00 00 00 

00000000000086f0 <_ZN4core3ptr13drop_in_place17ha8f855a39b7d9edaE>:
    86f0:	41 57                	push   %r15
    86f2:	41 56                	push   %r14
    86f4:	41 55                	push   %r13
    86f6:	41 54                	push   %r12
    86f8:	53                   	push   %rbx
    86f9:	48 81 ec c0 00 00 00 	sub    $0xc0,%rsp
    8700:	49 89 fe             	mov    %rdi,%r14
    8703:	4c 8b 27             	mov    (%rdi),%r12
    8706:	48 8b 47 10          	mov    0x10(%rdi),%rax
    870a:	48 85 c0             	test   %rax,%rax
    870d:	74 49                	je     8758 <_ZN4core3ptr13drop_in_place17ha8f855a39b7d9edaE+0x68>
    870f:	4c 6b f8 70          	imul   $0x70,%rax,%r15
    8713:	31 db                	xor    %ebx,%ebx
    8715:	4c 8d 2d 64 e6 ff ff 	lea    -0x199c(%rip),%r13        # 6d80 <__rust_dealloc>
    871c:	eb 0b                	jmp    8729 <_ZN4core3ptr13drop_in_place17ha8f855a39b7d9edaE+0x39>
    871e:	66 90                	xchg   %ax,%ax
    8720:	48 83 c3 70          	add    $0x70,%rbx
    8724:	49 39 df             	cmp    %rbx,%r15
    8727:	74 2c                	je     8755 <_ZN4core3ptr13drop_in_place17ha8f855a39b7d9edaE+0x65>
    8729:	49 83 7c 1c 08 00    	cmpq   $0x0,0x8(%r12,%rbx,1)
    872f:	74 ef                	je     8720 <_ZN4core3ptr13drop_in_place17ha8f855a39b7d9edaE+0x30>
    8731:	49 8b 74 1c 18       	mov    0x18(%r12,%rbx,1),%rsi
    8736:	48 85 f6             	test   %rsi,%rsi
    8739:	74 e5                	je     8720 <_ZN4core3ptr13drop_in_place17ha8f855a39b7d9edaE+0x30>
    873b:	49 8b 7c 1c 10       	mov    0x10(%r12,%rbx,1),%rdi
    8740:	48 85 ff             	test   %rdi,%rdi
    8743:	74 db                	je     8720 <_ZN4core3ptr13drop_in_place17ha8f855a39b7d9edaE+0x30>
    8745:	48 c1 e6 04          	shl    $0x4,%rsi
    8749:	74 d5                	je     8720 <_ZN4core3ptr13drop_in_place17ha8f855a39b7d9edaE+0x30>
    874b:	ba 08 00 00 00       	mov    $0x8,%edx
    8750:	41 ff d5             	callq  *%r13
    8753:	eb cb                	jmp    8720 <_ZN4core3ptr13drop_in_place17ha8f855a39b7d9edaE+0x30>
    8755:	4d 8b 26             	mov    (%r14),%r12
    8758:	49 8b 46 08          	mov    0x8(%r14),%rax
    875c:	48 85 c0             	test   %rax,%rax
    875f:	74 1c                	je     877d <_ZN4core3ptr13drop_in_place17ha8f855a39b7d9edaE+0x8d>
    8761:	4d 85 e4             	test   %r12,%r12
    8764:	74 17                	je     877d <_ZN4core3ptr13drop_in_place17ha8f855a39b7d9edaE+0x8d>
    8766:	48 6b f0 70          	imul   $0x70,%rax,%rsi
    876a:	48 85 f6             	test   %rsi,%rsi
    876d:	74 0e                	je     877d <_ZN4core3ptr13drop_in_place17ha8f855a39b7d9edaE+0x8d>
    876f:	ba 08 00 00 00       	mov    $0x8,%edx
    8774:	4c 89 e7             	mov    %r12,%rdi
    8777:	ff 15 5b 04 04 00    	callq  *0x4045b(%rip)        # 48bd8 <_GLOBAL_OFFSET_TABLE_+0x290>
    877d:	49 8b 4e 18          	mov    0x18(%r14),%rcx
    8781:	48 85 c9             	test   %rcx,%rcx
    8784:	74 45                	je     87cb <_ZN4core3ptr13drop_in_place17ha8f855a39b7d9edaE+0xdb>
    8786:	49 8b 7e 20          	mov    0x20(%r14),%rdi
    878a:	49 8b 46 28          	mov    0x28(%r14),%rax
    878e:	0f b7 51 0a          	movzwl 0xa(%rcx),%edx
    8792:	48 85 ff             	test   %rdi,%rdi
    8795:	74 4a                	je     87e1 <_ZN4core3ptr13drop_in_place17ha8f855a39b7d9edaE+0xf1>
    8797:	b3 01                	mov    $0x1,%bl
    8799:	48 89 ce             	mov    %rcx,%rsi
    879c:	0f 1f 40 00          	nopl   0x0(%rax)
    87a0:	f6 c3 01             	test   $0x1,%bl
    87a3:	0f 84 3a 01 00 00    	je     88e3 <_ZN4core3ptr13drop_in_place17ha8f855a39b7d9edaE+0x1f3>
    87a9:	48 83 ff 01          	cmp    $0x1,%rdi
    87ad:	0f 95 c3             	setne  %bl
    87b0:	48 8b 89 38 05 00 00 	mov    0x538(%rcx),%rcx
    87b7:	48 8b b4 d6 38 05 00 	mov    0x538(%rsi,%rdx,8),%rsi
    87be:	00 
    87bf:	0f b7 56 0a          	movzwl 0xa(%rsi),%edx
    87c3:	48 83 c7 ff          	add    $0xffffffffffffffff,%rdi
    87c7:	75 d7                	jne    87a0 <_ZN4core3ptr13drop_in_place17ha8f855a39b7d9edaE+0xb0>
    87c9:	eb 19                	jmp    87e4 <_ZN4core3ptr13drop_in_place17ha8f855a39b7d9edaE+0xf4>
    87cb:	48 c7 44 24 08 00 00 	movq   $0x0,0x8(%rsp)
    87d2:	00 00 
    87d4:	48 c7 44 24 28 00 00 	movq   $0x0,0x28(%rsp)
    87db:	00 00 
    87dd:	31 c0                	xor    %eax,%eax
    87df:	eb 34                	jmp    8815 <_ZN4core3ptr13drop_in_place17ha8f855a39b7d9edaE+0x125>
    87e1:	48 89 ce             	mov    %rcx,%rsi
    87e4:	48 c7 04 24 00 00 00 	movq   $0x0,(%rsp)
    87eb:	00 
    87ec:	48 89 4c 24 08       	mov    %rcx,0x8(%rsp)
    87f1:	0f 57 c0             	xorps  %xmm0,%xmm0
    87f4:	0f 11 44 24 10       	movups %xmm0,0x10(%rsp)
    87f9:	48 c7 44 24 20 00 00 	movq   $0x0,0x20(%rsp)
    8800:	00 00 
    8802:	48 89 74 24 28       	mov    %rsi,0x28(%rsp)
    8807:	48 c7 44 24 30 00 00 	movq   $0x0,0x30(%rsp)
    880e:	00 00 
    8810:	48 89 54 24 38       	mov    %rdx,0x38(%rsp)
    8815:	48 89 44 24 40       	mov    %rax,0x40(%rsp)
    881a:	48 8d 7c 24 48       	lea    0x48(%rsp),%rdi
    881f:	48 89 e6             	mov    %rsp,%rsi
    8822:	e8 89 e5 ff ff       	callq  6db0 <_ZN112_$LT$alloc..collections..btree..map..IntoIter$LT$K$C$V$GT$$u20$as$u20$core..iter..traits..iterator..Iterator$GT$4next17he76c59a26bc8121cE>
    8827:	48 8b 44 24 58       	mov    0x58(%rsp),%rax
    882c:	48 83 f8 02          	cmp    $0x2,%rax
    8830:	75 52                	jne    8884 <_ZN4core3ptr13drop_in_place17ha8f855a39b7d9edaE+0x194>
    8832:	48 8b 7c 24 08       	mov    0x8(%rsp),%rdi
    8837:	48 85 ff             	test   %rdi,%rdi
    883a:	74 37                	je     8873 <_ZN4core3ptr13drop_in_place17ha8f855a39b7d9edaE+0x183>
    883c:	48 8b 1c 24          	mov    (%rsp),%rbx
    8840:	41 be 38 05 00 00    	mov    $0x538,%r14d
    8846:	4c 8d 3d 33 e5 ff ff 	lea    -0x1acd(%rip),%r15        # 6d80 <__rust_dealloc>
    884d:	0f 1f 00             	nopl   (%rax)
    8850:	4c 8b 27             	mov    (%rdi),%r12
    8853:	48 85 db             	test   %rbx,%rbx
    8856:	48 8d 5b 01          	lea    0x1(%rbx),%rbx
    885a:	be 98 05 00 00       	mov    $0x598,%esi
    885f:	49 0f 44 f6          	cmove  %r14,%rsi
    8863:	ba 08 00 00 00       	mov    $0x8,%edx
    8868:	41 ff d7             	callq  *%r15
    886b:	4c 89 e7             	mov    %r12,%rdi
    886e:	4d 85 e4             	test   %r12,%r12
    8871:	75 dd                	jne    8850 <_ZN4core3ptr13drop_in_place17ha8f855a39b7d9edaE+0x160>
    8873:	48 81 c4 c0 00 00 00 	add    $0xc0,%rsp
    887a:	5b                   	pop    %rbx
    887b:	41 5c                	pop    %r12
    887d:	41 5d                	pop    %r13
    887f:	41 5e                	pop    %r14
    8881:	41 5f                	pop    %r15
    8883:	c3                   	retq   
    8884:	4c 8d 74 24 48       	lea    0x48(%rsp),%r14
    8889:	48 89 e3             	mov    %rsp,%rbx
    888c:	4c 8d 3d ed e4 ff ff 	lea    -0x1b13(%rip),%r15        # 6d80 <__rust_dealloc>
    8893:	eb 25                	jmp    88ba <_ZN4core3ptr13drop_in_place17ha8f855a39b7d9edaE+0x1ca>
    8895:	66 2e 0f 1f 84 00 00 	nopw   %cs:0x0(%rax,%rax,1)
    889c:	00 00 00 
    889f:	90                   	nop
    88a0:	4c 89 f7             	mov    %r14,%rdi
    88a3:	48 89 de             	mov    %rbx,%rsi
    88a6:	e8 05 e5 ff ff       	callq  6db0 <_ZN112_$LT$alloc..collections..btree..map..IntoIter$LT$K$C$V$GT$$u20$as$u20$core..iter..traits..iterator..Iterator$GT$4next17he76c59a26bc8121cE>
    88ab:	48 8b 44 24 58       	mov    0x58(%rsp),%rax
    88b0:	48 83 f8 02          	cmp    $0x2,%rax
    88b4:	0f 84 78 ff ff ff    	je     8832 <_ZN4core3ptr13drop_in_place17ha8f855a39b7d9edaE+0x142>
    88ba:	48 85 c0             	test   %rax,%rax
    88bd:	74 e1                	je     88a0 <_ZN4core3ptr13drop_in_place17ha8f855a39b7d9edaE+0x1b0>
    88bf:	48 8b 74 24 68       	mov    0x68(%rsp),%rsi
    88c4:	48 85 f6             	test   %rsi,%rsi
    88c7:	74 d7                	je     88a0 <_ZN4core3ptr13drop_in_place17ha8f855a39b7d9edaE+0x1b0>
    88c9:	48 8b 7c 24 60       	mov    0x60(%rsp),%rdi
    88ce:	48 85 ff             	test   %rdi,%rdi
    88d1:	74 cd                	je     88a0 <_ZN4core3ptr13drop_in_place17ha8f855a39b7d9edaE+0x1b0>
    88d3:	48 c1 e6 04          	shl    $0x4,%rsi
    88d7:	74 c7                	je     88a0 <_ZN4core3ptr13drop_in_place17ha8f855a39b7d9edaE+0x1b0>
    88d9:	ba 08 00 00 00       	mov    $0x8,%edx
    88de:	41 ff d7             	callq  *%r15
    88e1:	eb bd                	jmp    88a0 <_ZN4core3ptr13drop_in_place17ha8f855a39b7d9edaE+0x1b0>
    88e3:	48 8d 05 46 df 03 00 	lea    0x3df46(%rip),%rax        # 46830 <anon.14c24cb995e3d6e38322ebd61970439a.0.llvm.3793478678705122716+0x3f0>
    88ea:	48 89 04 24          	mov    %rax,(%rsp)
    88ee:	48 8d 05 6b e9 ff ff 	lea    -0x1695(%rip),%rax        # 7260 <_ZN44_$LT$$RF$T$u20$as$u20$core..fmt..Display$GT$3fmt17h87345b30b52fad68E>
    88f5:	48 89 44 24 08       	mov    %rax,0x8(%rsp)
    88fa:	48 8d 05 1f df 03 00 	lea    0x3df1f(%rip),%rax        # 46820 <anon.14c24cb995e3d6e38322ebd61970439a.0.llvm.3793478678705122716+0x3e0>
    8901:	48 89 44 24 48       	mov    %rax,0x48(%rsp)
    8906:	48 c7 44 24 50 01 00 	movq   $0x1,0x50(%rsp)
    890d:	00 00 
    890f:	48 c7 44 24 58 00 00 	movq   $0x0,0x58(%rsp)
    8916:	00 00 
    8918:	48 89 e0             	mov    %rsp,%rax
    891b:	48 89 44 24 68       	mov    %rax,0x68(%rsp)
    8920:	48 c7 44 24 70 01 00 	movq   $0x1,0x70(%rsp)
    8927:	00 00 
    8929:	48 8d 35 10 df 03 00 	lea    0x3df10(%rip),%rsi        # 46840 <anon.14c24cb995e3d6e38322ebd61970439a.0.llvm.3793478678705122716+0x400>
    8930:	48 8d 7c 24 48       	lea    0x48(%rsp),%rdi
    8935:	ff 15 fd 02 04 00    	callq  *0x402fd(%rip)        # 48c38 <_GLOBAL_OFFSET_TABLE_+0x2f0>
    893b:	0f 0b                	ud2    
    893d:	0f 1f 00             	nopl   (%rax)

0000000000008940 <_ZN4core3ptr13drop_in_place17had377cafa515392bE>:
    8940:	48 8b 77 08          	mov    0x8(%rdi),%rsi
    8944:	48 85 f6             	test   %rsi,%rsi
    8947:	74 19                	je     8962 <_ZN4core3ptr13drop_in_place17had377cafa515392bE+0x22>
    8949:	48 8b 3f             	mov    (%rdi),%rdi
    894c:	48 85 ff             	test   %rdi,%rdi
    894f:	74 11                	je     8962 <_ZN4core3ptr13drop_in_place17had377cafa515392bE+0x22>
    8951:	48 c1 e6 04          	shl    $0x4,%rsi
    8955:	74 0b                	je     8962 <_ZN4core3ptr13drop_in_place17had377cafa515392bE+0x22>
    8957:	ba 08 00 00 00       	mov    $0x8,%edx
    895c:	ff 25 76 02 04 00    	jmpq   *0x40276(%rip)        # 48bd8 <_GLOBAL_OFFSET_TABLE_+0x290>
    8962:	c3                   	retq   
    8963:	66 2e 0f 1f 84 00 00 	nopw   %cs:0x0(%rax,%rax,1)
    896a:	00 00 00 
    896d:	0f 1f 00             	nopl   (%rax)

0000000000008970 <_ZN4core3ptr13drop_in_place17haf4a5e28c8305751E>:
    8970:	41 57                	push   %r15
    8972:	41 56                	push   %r14
    8974:	41 55                	push   %r13
    8976:	41 54                	push   %r12
    8978:	53                   	push   %rbx
    8979:	48 83 3f 00          	cmpq   $0x0,(%rdi)
    897d:	74 0a                	je     8989 <_ZN4core3ptr13drop_in_place17haf4a5e28c8305751E+0x19>
    897f:	5b                   	pop    %rbx
    8980:	41 5c                	pop    %r12
    8982:	41 5d                	pop    %r13
    8984:	41 5e                	pop    %r14
    8986:	41 5f                	pop    %r15
    8988:	c3                   	retq   
    8989:	49 89 fe             	mov    %rdi,%r14
    898c:	48 8b 47 10          	mov    0x10(%rdi),%rax
    8990:	48 85 c0             	test   %rax,%rax
    8993:	74 5f                	je     89f4 <_ZN4core3ptr13drop_in_place17haf4a5e28c8305751E+0x84>
    8995:	49 8b 5e 08          	mov    0x8(%r14),%rbx
    8999:	48 8d 04 40          	lea    (%rax,%rax,2),%rax
    899d:	4c 8d 3c c3          	lea    (%rbx,%rax,8),%r15
    89a1:	4c 8d 25 d8 e3 ff ff 	lea    -0x1c28(%rip),%r12        # 6d80 <__rust_dealloc>
    89a8:	eb 0f                	jmp    89b9 <_ZN4core3ptr13drop_in_place17haf4a5e28c8305751E+0x49>
    89aa:	66 0f 1f 44 00 00    	nopw   0x0(%rax,%rax,1)
    89b0:	48 83 c3 18          	add    $0x18,%rbx
    89b4:	4c 39 fb             	cmp    %r15,%rbx
    89b7:	74 1b                	je     89d4 <_ZN4core3ptr13drop_in_place17haf4a5e28c8305751E+0x64>
    89b9:	48 8b 3b             	mov    (%rbx),%rdi
    89bc:	48 85 ff             	test   %rdi,%rdi
    89bf:	74 ef                	je     89b0 <_ZN4core3ptr13drop_in_place17haf4a5e28c8305751E+0x40>
    89c1:	48 8b 73 08          	mov    0x8(%rbx),%rsi
    89c5:	48 85 f6             	test   %rsi,%rsi
    89c8:	74 e6                	je     89b0 <_ZN4core3ptr13drop_in_place17haf4a5e28c8305751E+0x40>
    89ca:	ba 01 00 00 00       	mov    $0x1,%edx
    89cf:	41 ff d4             	callq  *%r12
    89d2:	eb dc                	jmp    89b0 <_ZN4core3ptr13drop_in_place17haf4a5e28c8305751E+0x40>
    89d4:	49 8b 46 10          	mov    0x10(%r14),%rax
    89d8:	48 c1 e0 03          	shl    $0x3,%rax
    89dc:	48 8d 34 40          	lea    (%rax,%rax,2),%rsi
    89e0:	48 85 f6             	test   %rsi,%rsi
    89e3:	74 0f                	je     89f4 <_ZN4core3ptr13drop_in_place17haf4a5e28c8305751E+0x84>
    89e5:	49 8b 7e 08          	mov    0x8(%r14),%rdi
    89e9:	ba 08 00 00 00       	mov    $0x8,%edx
    89ee:	ff 15 e4 01 04 00    	callq  *0x401e4(%rip)        # 48bd8 <_GLOBAL_OFFSET_TABLE_+0x290>
    89f4:	4d 8b 7e 20          	mov    0x20(%r14),%r15
    89f8:	4d 85 ff             	test   %r15,%r15
    89fb:	74 82                	je     897f <_ZN4core3ptr13drop_in_place17haf4a5e28c8305751E+0xf>
    89fd:	4d 8b 66 18          	mov    0x18(%r14),%r12
    8a01:	49 c1 e7 05          	shl    $0x5,%r15
    8a05:	31 db                	xor    %ebx,%ebx
    8a07:	4c 8d 2d 72 e3 ff ff 	lea    -0x1c8e(%rip),%r13        # 6d80 <__rust_dealloc>
    8a0e:	eb 09                	jmp    8a19 <_ZN4core3ptr13drop_in_place17haf4a5e28c8305751E+0xa9>
    8a10:	48 83 c3 20          	add    $0x20,%rbx
    8a14:	49 39 df             	cmp    %rbx,%r15
    8a17:	74 21                	je     8a3a <_ZN4core3ptr13drop_in_place17haf4a5e28c8305751E+0xca>
    8a19:	49 8b 44 1c 18       	mov    0x18(%r12,%rbx,1),%rax
    8a1e:	48 c1 e0 03          	shl    $0x3,%rax
    8a22:	48 8d 34 40          	lea    (%rax,%rax,2),%rsi
    8a26:	48 85 f6             	test   %rsi,%rsi
    8a29:	74 e5                	je     8a10 <_ZN4core3ptr13drop_in_place17haf4a5e28c8305751E+0xa0>
    8a2b:	49 8b 7c 1c 10       	mov    0x10(%r12,%rbx,1),%rdi
    8a30:	ba 08 00 00 00       	mov    $0x8,%edx
    8a35:	41 ff d5             	callq  *%r13
    8a38:	eb d6                	jmp    8a10 <_ZN4core3ptr13drop_in_place17haf4a5e28c8305751E+0xa0>
    8a3a:	49 8b 76 20          	mov    0x20(%r14),%rsi
    8a3e:	48 c1 e6 05          	shl    $0x5,%rsi
    8a42:	0f 84 37 ff ff ff    	je     897f <_ZN4core3ptr13drop_in_place17haf4a5e28c8305751E+0xf>
    8a48:	49 8b 7e 18          	mov    0x18(%r14),%rdi
    8a4c:	ba 08 00 00 00       	mov    $0x8,%edx
    8a51:	5b                   	pop    %rbx
    8a52:	41 5c                	pop    %r12
    8a54:	41 5d                	pop    %r13
    8a56:	41 5e                	pop    %r14
    8a58:	41 5f                	pop    %r15
    8a5a:	ff 25 78 01 04 00    	jmpq   *0x40178(%rip)        # 48bd8 <_GLOBAL_OFFSET_TABLE_+0x290>

0000000000008a60 <_ZN4core3ptr13drop_in_place17hb85571041a991d32E>:
    8a60:	41 56                	push   %r14
    8a62:	53                   	push   %rbx
    8a63:	50                   	push   %rax
    8a64:	48 89 fb             	mov    %rdi,%rbx
    8a67:	48 8b 3f             	mov    (%rdi),%rdi
    8a6a:	48 85 ff             	test   %rdi,%rdi
    8a6d:	74 27                	je     8a96 <_ZN4core3ptr13drop_in_place17hb85571041a991d32E+0x36>
    8a6f:	48 8b 43 08          	mov    0x8(%rbx),%rax
    8a73:	ff 10                	callq  *(%rax)
    8a75:	48 8b 43 08          	mov    0x8(%rbx),%rax
    8a79:	48 8b 70 08          	mov    0x8(%rax),%rsi
    8a7d:	48 85 f6             	test   %rsi,%rsi
    8a80:	74 14                	je     8a96 <_ZN4core3ptr13drop_in_place17hb85571041a991d32E+0x36>
    8a82:	48 8b 3b             	mov    (%rbx),%rdi
    8a85:	48 8b 50 10          	mov    0x10(%rax),%rdx
    8a89:	48 83 c4 08          	add    $0x8,%rsp
    8a8d:	5b                   	pop    %rbx
    8a8e:	41 5e                	pop    %r14
    8a90:	ff 25 42 01 04 00    	jmpq   *0x40142(%rip)        # 48bd8 <_GLOBAL_OFFSET_TABLE_+0x290>
    8a96:	48 83 c4 08          	add    $0x8,%rsp
    8a9a:	5b                   	pop    %rbx
    8a9b:	41 5e                	pop    %r14
    8a9d:	c3                   	retq   
    8a9e:	49 89 c6             	mov    %rax,%r14
    8aa1:	48 8b 3b             	mov    (%rbx),%rdi
    8aa4:	48 8b 73 08          	mov    0x8(%rbx),%rsi
    8aa8:	e8 93 29 00 00       	callq  b440 <_ZN5alloc5alloc8box_free17h1f4a4987a41273f7E>
    8aad:	4c 89 f7             	mov    %r14,%rdi
    8ab0:	e8 cb d5 ff ff       	callq  6080 <_Unwind_Resume@plt>
    8ab5:	0f 0b                	ud2    
    8ab7:	66 0f 1f 84 00 00 00 	nopw   0x0(%rax,%rax,1)
    8abe:	00 00 

0000000000008ac0 <_ZN4core3ptr13drop_in_place17hbee9d297071be767E>:
    8ac0:	41 57                	push   %r15
    8ac2:	41 56                	push   %r14
    8ac4:	41 54                	push   %r12
    8ac6:	53                   	push   %rbx
    8ac7:	50                   	push   %rax
    8ac8:	49 89 fe             	mov    %rdi,%r14
    8acb:	48 8b 1f             	mov    (%rdi),%rbx
    8ace:	48 8b 47 10          	mov    0x10(%rdi),%rax
    8ad2:	48 85 c0             	test   %rax,%rax
    8ad5:	74 40                	je     8b17 <_ZN4core3ptr13drop_in_place17hbee9d297071be767E+0x57>
    8ad7:	48 8d 04 40          	lea    (%rax,%rax,2),%rax
    8adb:	4c 8d 3c c3          	lea    (%rbx,%rax,8),%r15
    8adf:	4c 8d 25 9a e2 ff ff 	lea    -0x1d66(%rip),%r12        # 6d80 <__rust_dealloc>
    8ae6:	eb 11                	jmp    8af9 <_ZN4core3ptr13drop_in_place17hbee9d297071be767E+0x39>
    8ae8:	0f 1f 84 00 00 00 00 	nopl   0x0(%rax,%rax,1)
    8aef:	00 
    8af0:	48 83 c3 18          	add    $0x18,%rbx
    8af4:	4c 39 fb             	cmp    %r15,%rbx
    8af7:	74 1b                	je     8b14 <_ZN4core3ptr13drop_in_place17hbee9d297071be767E+0x54>
    8af9:	48 8b 3b             	mov    (%rbx),%rdi
    8afc:	48 85 ff             	test   %rdi,%rdi
    8aff:	74 ef                	je     8af0 <_ZN4core3ptr13drop_in_place17hbee9d297071be767E+0x30>
    8b01:	48 8b 73 08          	mov    0x8(%rbx),%rsi
    8b05:	48 85 f6             	test   %rsi,%rsi
    8b08:	74 e6                	je     8af0 <_ZN4core3ptr13drop_in_place17hbee9d297071be767E+0x30>
    8b0a:	ba 01 00 00 00       	mov    $0x1,%edx
    8b0f:	41 ff d4             	callq  *%r12
    8b12:	eb dc                	jmp    8af0 <_ZN4core3ptr13drop_in_place17hbee9d297071be767E+0x30>
    8b14:	49 8b 1e             	mov    (%r14),%rbx
    8b17:	49 8b 46 08          	mov    0x8(%r14),%rax
    8b1b:	48 85 c0             	test   %rax,%rax
    8b1e:	74 2b                	je     8b4b <_ZN4core3ptr13drop_in_place17hbee9d297071be767E+0x8b>
    8b20:	48 85 db             	test   %rbx,%rbx
    8b23:	74 26                	je     8b4b <_ZN4core3ptr13drop_in_place17hbee9d297071be767E+0x8b>
    8b25:	48 c1 e0 03          	shl    $0x3,%rax
    8b29:	48 8d 34 40          	lea    (%rax,%rax,2),%rsi
    8b2d:	48 85 f6             	test   %rsi,%rsi
    8b30:	74 19                	je     8b4b <_ZN4core3ptr13drop_in_place17hbee9d297071be767E+0x8b>
    8b32:	ba 08 00 00 00       	mov    $0x8,%edx
    8b37:	48 89 df             	mov    %rbx,%rdi
    8b3a:	48 83 c4 08          	add    $0x8,%rsp
    8b3e:	5b                   	pop    %rbx
    8b3f:	41 5c                	pop    %r12
    8b41:	41 5e                	pop    %r14
    8b43:	41 5f                	pop    %r15
    8b45:	ff 25 8d 00 04 00    	jmpq   *0x4008d(%rip)        # 48bd8 <_GLOBAL_OFFSET_TABLE_+0x290>
    8b4b:	48 83 c4 08          	add    $0x8,%rsp
    8b4f:	5b                   	pop    %rbx
    8b50:	41 5c                	pop    %r12
    8b52:	41 5e                	pop    %r14
    8b54:	41 5f                	pop    %r15
    8b56:	c3                   	retq   
    8b57:	66 0f 1f 84 00 00 00 	nopw   0x0(%rax,%rax,1)
    8b5e:	00 00 

0000000000008b60 <_ZN4core3ptr13drop_in_place17hc069cfc1924f6f86E>:
    8b60:	ff 25 4a 04 04 00    	jmpq   *0x4044a(%rip)        # 48fb0 <_GLOBAL_OFFSET_TABLE_+0x668>
    8b66:	66 2e 0f 1f 84 00 00 	nopw   %cs:0x0(%rax,%rax,1)
    8b6d:	00 00 00 

0000000000008b70 <_ZN4core3ptr13drop_in_place17hc160361666192bfeE>:
    8b70:	53                   	push   %rbx
    8b71:	48 89 fb             	mov    %rdi,%rbx
    8b74:	48 8b 3f             	mov    (%rdi),%rdi
    8b77:	ff 15 2b 03 04 00    	callq  *0x4032b(%rip)        # 48ea8 <pthread_cond_destroy@GLIBC_2.3.2>
    8b7d:	48 8b 3b             	mov    (%rbx),%rdi
    8b80:	be 30 00 00 00       	mov    $0x30,%esi
    8b85:	ba 08 00 00 00       	mov    $0x8,%edx
    8b8a:	5b                   	pop    %rbx
    8b8b:	ff 25 47 00 04 00    	jmpq   *0x40047(%rip)        # 48bd8 <_GLOBAL_OFFSET_TABLE_+0x290>
    8b91:	66 2e 0f 1f 84 00 00 	nopw   %cs:0x0(%rax,%rax,1)
    8b98:	00 00 00 
    8b9b:	0f 1f 44 00 00       	nopl   0x0(%rax,%rax,1)

0000000000008ba0 <_ZN4core3ptr13drop_in_place17hc7512efbeb621170E>:
    8ba0:	48 8b 07             	mov    (%rdi),%rax
    8ba3:	48 8b 70 08          	mov    0x8(%rax),%rsi
    8ba7:	48 85 f6             	test   %rsi,%rsi
    8baa:	74 14                	je     8bc0 <_ZN4core3ptr13drop_in_place17hc7512efbeb621170E+0x20>
    8bac:	48 c1 e6 04          	shl    $0x4,%rsi
    8bb0:	74 0e                	je     8bc0 <_ZN4core3ptr13drop_in_place17hc7512efbeb621170E+0x20>
    8bb2:	48 8b 38             	mov    (%rax),%rdi
    8bb5:	ba 08 00 00 00       	mov    $0x8,%edx
    8bba:	ff 25 18 00 04 00    	jmpq   *0x40018(%rip)        # 48bd8 <_GLOBAL_OFFSET_TABLE_+0x290>
    8bc0:	c3                   	retq   
    8bc1:	66 2e 0f 1f 84 00 00 	nopw   %cs:0x0(%rax,%rax,1)
    8bc8:	00 00 00 
    8bcb:	0f 1f 44 00 00       	nopl   0x0(%rax,%rax,1)

0000000000008bd0 <_ZN4core3ptr13drop_in_place17hcb0ed08cd330c610E>:
    8bd0:	41 57                	push   %r15
    8bd2:	41 56                	push   %r14
    8bd4:	53                   	push   %rbx
    8bd5:	48 83 ec 10          	sub    $0x10,%rsp
    8bd9:	48 89 fb             	mov    %rdi,%rbx
    8bdc:	80 7f 18 00          	cmpb   $0x0,0x18(%rdi)
    8be0:	74 1c                	je     8bfe <_ZN4core3ptr13drop_in_place17hcb0ed08cd330c610E+0x2e>
    8be2:	80 7b 19 00          	cmpb   $0x0,0x19(%rbx)
    8be6:	75 16                	jne    8bfe <_ZN4core3ptr13drop_in_place17hcb0ed08cd330c610E+0x2e>
    8be8:	48 89 e7             	mov    %rsp,%rdi
    8beb:	48 89 de             	mov    %rbx,%rsi
    8bee:	e8 2d da 00 00       	callq  16620 <_ZN3std2io8buffered18BufWriter$LT$W$GT$9flush_buf17h78770653f08cbfc7E>
    8bf3:	8a 04 24             	mov    (%rsp),%al
    8bf6:	3c 03                	cmp    $0x3,%al
    8bf8:	77 29                	ja     8c23 <_ZN4core3ptr13drop_in_place17hcb0ed08cd330c610E+0x53>
    8bfa:	3c 02                	cmp    $0x2,%al
    8bfc:	74 25                	je     8c23 <_ZN4core3ptr13drop_in_place17hcb0ed08cd330c610E+0x53>
    8bfe:	48 8b 3b             	mov    (%rbx),%rdi
    8c01:	48 85 ff             	test   %rdi,%rdi
    8c04:	74 60                	je     8c66 <_ZN4core3ptr13drop_in_place17hcb0ed08cd330c610E+0x96>
    8c06:	48 8b 73 08          	mov    0x8(%rbx),%rsi
    8c0a:	48 85 f6             	test   %rsi,%rsi
    8c0d:	74 57                	je     8c66 <_ZN4core3ptr13drop_in_place17hcb0ed08cd330c610E+0x96>
    8c0f:	ba 01 00 00 00       	mov    $0x1,%edx
    8c14:	48 83 c4 10          	add    $0x10,%rsp
    8c18:	5b                   	pop    %rbx
    8c19:	41 5e                	pop    %r14
    8c1b:	41 5f                	pop    %r15
    8c1d:	ff 25 b5 ff 03 00    	jmpq   *0x3ffb5(%rip)        # 48bd8 <_GLOBAL_OFFSET_TABLE_+0x290>
    8c23:	4c 8b 74 24 08       	mov    0x8(%rsp),%r14
    8c28:	49 8b 3e             	mov    (%r14),%rdi
    8c2b:	49 8b 46 08          	mov    0x8(%r14),%rax
    8c2f:	ff 10                	callq  *(%rax)
    8c31:	49 8b 46 08          	mov    0x8(%r14),%rax
    8c35:	48 8b 70 08          	mov    0x8(%rax),%rsi
    8c39:	48 85 f6             	test   %rsi,%rsi
    8c3c:	74 0d                	je     8c4b <_ZN4core3ptr13drop_in_place17hcb0ed08cd330c610E+0x7b>
    8c3e:	49 8b 3e             	mov    (%r14),%rdi
    8c41:	48 8b 50 10          	mov    0x10(%rax),%rdx
    8c45:	ff 15 8d ff 03 00    	callq  *0x3ff8d(%rip)        # 48bd8 <_GLOBAL_OFFSET_TABLE_+0x290>
    8c4b:	be 18 00 00 00       	mov    $0x18,%esi
    8c50:	ba 08 00 00 00       	mov    $0x8,%edx
    8c55:	4c 89 f7             	mov    %r14,%rdi
    8c58:	ff 15 7a ff 03 00    	callq  *0x3ff7a(%rip)        # 48bd8 <_GLOBAL_OFFSET_TABLE_+0x290>
    8c5e:	48 8b 3b             	mov    (%rbx),%rdi
    8c61:	48 85 ff             	test   %rdi,%rdi
    8c64:	75 a0                	jne    8c06 <_ZN4core3ptr13drop_in_place17hcb0ed08cd330c610E+0x36>
    8c66:	48 83 c4 10          	add    $0x10,%rsp
    8c6a:	5b                   	pop    %rbx
    8c6b:	41 5e                	pop    %r14
    8c6d:	41 5f                	pop    %r15
    8c6f:	c3                   	retq   
    8c70:	49 89 c7             	mov    %rax,%r15
    8c73:	49 8b 3e             	mov    (%r14),%rdi
    8c76:	49 8b 76 08          	mov    0x8(%r14),%rsi
    8c7a:	e8 c1 27 00 00       	callq  b440 <_ZN5alloc5alloc8box_free17h1f4a4987a41273f7E>
    8c7f:	4c 89 f7             	mov    %r14,%rdi
    8c82:	e8 d9 27 00 00       	callq  b460 <_ZN5alloc5alloc8box_free17h4e0e6c1158b88bb2E>
    8c87:	eb 03                	jmp    8c8c <_ZN4core3ptr13drop_in_place17hcb0ed08cd330c610E+0xbc>
    8c89:	49 89 c7             	mov    %rax,%r15
    8c8c:	48 89 df             	mov    %rbx,%rdi
    8c8f:	e8 9c 00 00 00       	callq  8d30 <_ZN4core3ptr13drop_in_place17hd18b862c85cad0bdE>
    8c94:	4c 89 ff             	mov    %r15,%rdi
    8c97:	e8 e4 d3 ff ff       	callq  6080 <_Unwind_Resume@plt>
    8c9c:	0f 0b                	ud2    
    8c9e:	66 90                	xchg   %ax,%ax

0000000000008ca0 <_ZN4core3ptr13drop_in_place17hcd01c023bb0b44d1E>:
    8ca0:	48 83 3f 00          	cmpq   $0x0,(%rdi)
    8ca4:	74 20                	je     8cc6 <_ZN4core3ptr13drop_in_place17hcd01c023bb0b44d1E+0x26>
    8ca6:	48 89 f8             	mov    %rdi,%rax
    8ca9:	48 8b 7f 08          	mov    0x8(%rdi),%rdi
    8cad:	48 85 ff             	test   %rdi,%rdi
    8cb0:	74 14                	je     8cc6 <_ZN4core3ptr13drop_in_place17hcd01c023bb0b44d1E+0x26>
    8cb2:	48 8b 70 10          	mov    0x10(%rax),%rsi
    8cb6:	48 85 f6             	test   %rsi,%rsi
    8cb9:	74 0b                	je     8cc6 <_ZN4core3ptr13drop_in_place17hcd01c023bb0b44d1E+0x26>
    8cbb:	ba 01 00 00 00       	mov    $0x1,%edx
    8cc0:	ff 25 12 ff 03 00    	jmpq   *0x3ff12(%rip)        # 48bd8 <_GLOBAL_OFFSET_TABLE_+0x290>
    8cc6:	c3                   	retq   
    8cc7:	66 0f 1f 84 00 00 00 	nopw   0x0(%rax,%rax,1)
    8cce:	00 00 

0000000000008cd0 <_ZN4core3ptr13drop_in_place17hcf89a4bcda4c5765E>:
    8cd0:	41 56                	push   %r14
    8cd2:	53                   	push   %rbx
    8cd3:	50                   	push   %rax
    8cd4:	83 3f 00             	cmpl   $0x0,(%rdi)
    8cd7:	74 2f                	je     8d08 <_ZN4core3ptr13drop_in_place17hcf89a4bcda4c5765E+0x38>
    8cd9:	48 89 fb             	mov    %rdi,%rbx
    8cdc:	48 8b 7f 08          	mov    0x8(%rdi),%rdi
    8ce0:	48 8b 43 10          	mov    0x10(%rbx),%rax
    8ce4:	ff 10                	callq  *(%rax)
    8ce6:	48 8b 43 10          	mov    0x10(%rbx),%rax
    8cea:	48 8b 70 08          	mov    0x8(%rax),%rsi
    8cee:	48 85 f6             	test   %rsi,%rsi
    8cf1:	74 15                	je     8d08 <_ZN4core3ptr13drop_in_place17hcf89a4bcda4c5765E+0x38>
    8cf3:	48 8b 7b 08          	mov    0x8(%rbx),%rdi
    8cf7:	48 8b 50 10          	mov    0x10(%rax),%rdx
    8cfb:	48 83 c4 08          	add    $0x8,%rsp
    8cff:	5b                   	pop    %rbx
    8d00:	41 5e                	pop    %r14
    8d02:	ff 25 d0 fe 03 00    	jmpq   *0x3fed0(%rip)        # 48bd8 <_GLOBAL_OFFSET_TABLE_+0x290>
    8d08:	48 83 c4 08          	add    $0x8,%rsp
    8d0c:	5b                   	pop    %rbx
    8d0d:	41 5e                	pop    %r14
    8d0f:	c3                   	retq   
    8d10:	49 89 c6             	mov    %rax,%r14
    8d13:	48 8b 7b 08          	mov    0x8(%rbx),%rdi
    8d17:	48 8b 73 10          	mov    0x10(%rbx),%rsi
    8d1b:	e8 20 27 00 00       	callq  b440 <_ZN5alloc5alloc8box_free17h1f4a4987a41273f7E>
    8d20:	4c 89 f7             	mov    %r14,%rdi
    8d23:	e8 58 d3 ff ff       	callq  6080 <_Unwind_Resume@plt>
    8d28:	0f 0b                	ud2    
    8d2a:	66 0f 1f 44 00 00    	nopw   0x0(%rax,%rax,1)

0000000000008d30 <_ZN4core3ptr13drop_in_place17hd18b862c85cad0bdE>:
    8d30:	48 89 f8             	mov    %rdi,%rax
    8d33:	48 8b 3f             	mov    (%rdi),%rdi
    8d36:	48 85 ff             	test   %rdi,%rdi
    8d39:	74 14                	je     8d4f <_ZN4core3ptr13drop_in_place17hd18b862c85cad0bdE+0x1f>
    8d3b:	48 8b 70 08          	mov    0x8(%rax),%rsi
    8d3f:	48 85 f6             	test   %rsi,%rsi
    8d42:	74 0b                	je     8d4f <_ZN4core3ptr13drop_in_place17hd18b862c85cad0bdE+0x1f>
    8d44:	ba 01 00 00 00       	mov    $0x1,%edx
    8d49:	ff 25 89 fe 03 00    	jmpq   *0x3fe89(%rip)        # 48bd8 <_GLOBAL_OFFSET_TABLE_+0x290>
    8d4f:	c3                   	retq   

0000000000008d50 <_ZN4core3ptr13drop_in_place17hd473f5059b4c200dE>:
    8d50:	50                   	push   %rax
    8d51:	40 84 ff             	test   %dil,%dil
    8d54:	75 02                	jne    8d58 <_ZN4core3ptr13drop_in_place17hd473f5059b4c200dE+0x8>
    8d56:	58                   	pop    %rax
    8d57:	c3                   	retq   
    8d58:	48 8d 3d 87 14 03 00 	lea    0x31487(%rip),%rdi        # 3a1e6 <str.4+0xea6>
    8d5f:	48 8d 15 72 e7 03 00 	lea    0x3e772(%rip),%rdx        # 474d8 <anon.14c24cb995e3d6e38322ebd61970439a.0.llvm.3793478678705122716+0x1098>
    8d66:	be 2a 00 00 00       	mov    $0x2a,%esi
    8d6b:	e8 50 39 01 00       	callq  1c6c0 <_ZN3std9panicking11begin_panic17h9d00f04e69af8ccbE>
    8d70:	0f 0b                	ud2    
    8d72:	66 2e 0f 1f 84 00 00 	nopw   %cs:0x0(%rax,%rax,1)
    8d79:	00 00 00 
    8d7c:	0f 1f 40 00          	nopl   0x0(%rax)

0000000000008d80 <_ZN4core3ptr13drop_in_place17hdc973a93e7e26627E>:
    8d80:	48 8b 07             	mov    (%rdi),%rax
    8d83:	f0 48 83 28 01       	lock subq $0x1,(%rax)
    8d88:	75 05                	jne    8d8f <_ZN4core3ptr13drop_in_place17hdc973a93e7e26627E+0xf>
    8d8a:	e9 b1 25 00 00       	jmpq   b340 <_ZN5alloc4sync12Arc$LT$T$GT$9drop_slow17h08ec9b9e6c05bb87E>
    8d8f:	c3                   	retq   

0000000000008d90 <_ZN4core3ptr13drop_in_place17hdff8cc377f518ad8E>:
    8d90:	48 8b 07             	mov    (%rdi),%rax
    8d93:	48 85 c0             	test   %rax,%rax
    8d96:	74 0c                	je     8da4 <_ZN4core3ptr13drop_in_place17hdff8cc377f518ad8E+0x14>
    8d98:	f0 48 83 28 01       	lock subq $0x1,(%rax)
    8d9d:	75 05                	jne    8da4 <_ZN4core3ptr13drop_in_place17hdff8cc377f518ad8E+0x14>
    8d9f:	e9 ec 25 00 00       	jmpq   b390 <_ZN5alloc4sync12Arc$LT$T$GT$9drop_slow17h2be82c68ed00e38dE>
    8da4:	c3                   	retq   
    8da5:	66 2e 0f 1f 84 00 00 	nopw   %cs:0x0(%rax,%rax,1)
    8dac:	00 00 00 
    8daf:	90                   	nop

0000000000008db0 <_ZN4core3ptr13drop_in_place17he129aa9fa1d19118E>:
    8db0:	53                   	push   %rbx
    8db1:	48 89 fb             	mov    %rdi,%rbx
    8db4:	48 8b 77 30          	mov    0x30(%rdi),%rsi
    8db8:	48 85 f6             	test   %rsi,%rsi
    8dbb:	74 1d                	je     8dda <_ZN4core3ptr13drop_in_place17he129aa9fa1d19118E+0x2a>
    8dbd:	48 8b 7b 28          	mov    0x28(%rbx),%rdi
    8dc1:	48 85 ff             	test   %rdi,%rdi
    8dc4:	74 14                	je     8dda <_ZN4core3ptr13drop_in_place17he129aa9fa1d19118E+0x2a>
    8dc6:	48 c1 e6 02          	shl    $0x2,%rsi
    8dca:	48 85 f6             	test   %rsi,%rsi
    8dcd:	74 0b                	je     8dda <_ZN4core3ptr13drop_in_place17he129aa9fa1d19118E+0x2a>
    8dcf:	ba 02 00 00 00       	mov    $0x2,%edx
    8dd4:	ff 15 fe fd 03 00    	callq  *0x3fdfe(%rip)        # 48bd8 <_GLOBAL_OFFSET_TABLE_+0x290>
    8dda:	48 8b 43 48          	mov    0x48(%rbx),%rax
    8dde:	48 85 c0             	test   %rax,%rax
    8de1:	74 21                	je     8e04 <_ZN4core3ptr13drop_in_place17he129aa9fa1d19118E+0x54>
    8de3:	48 8b 7b 40          	mov    0x40(%rbx),%rdi
    8de7:	48 85 ff             	test   %rdi,%rdi
    8dea:	74 18                	je     8e04 <_ZN4core3ptr13drop_in_place17he129aa9fa1d19118E+0x54>
    8dec:	48 c1 e0 03          	shl    $0x3,%rax
    8df0:	48 8d 34 40          	lea    (%rax,%rax,2),%rsi
    8df4:	48 85 f6             	test   %rsi,%rsi
    8df7:	74 0b                	je     8e04 <_ZN4core3ptr13drop_in_place17he129aa9fa1d19118E+0x54>
    8df9:	ba 08 00 00 00       	mov    $0x8,%edx
    8dfe:	ff 15 d4 fd 03 00    	callq  *0x3fdd4(%rip)        # 48bd8 <_GLOBAL_OFFSET_TABLE_+0x290>
    8e04:	48 8b 73 60          	mov    0x60(%rbx),%rsi
    8e08:	48 85 f6             	test   %rsi,%rsi
    8e0b:	74 1d                	je     8e2a <_ZN4core3ptr13drop_in_place17he129aa9fa1d19118E+0x7a>
    8e0d:	48 8b 7b 58          	mov    0x58(%rbx),%rdi
    8e11:	48 85 ff             	test   %rdi,%rdi
    8e14:	74 14                	je     8e2a <_ZN4core3ptr13drop_in_place17he129aa9fa1d19118E+0x7a>
    8e16:	48 c1 e6 02          	shl    $0x2,%rsi
    8e1a:	48 85 f6             	test   %rsi,%rsi
    8e1d:	74 0b                	je     8e2a <_ZN4core3ptr13drop_in_place17he129aa9fa1d19118E+0x7a>
    8e1f:	ba 02 00 00 00       	mov    $0x2,%edx
    8e24:	ff 15 ae fd 03 00    	callq  *0x3fdae(%rip)        # 48bd8 <_GLOBAL_OFFSET_TABLE_+0x290>
    8e2a:	48 8b 73 78          	mov    0x78(%rbx),%rsi
    8e2e:	48 85 f6             	test   %rsi,%rsi
    8e31:	74 1b                	je     8e4e <_ZN4core3ptr13drop_in_place17he129aa9fa1d19118E+0x9e>
    8e33:	48 8b 7b 70          	mov    0x70(%rbx),%rdi
    8e37:	48 85 ff             	test   %rdi,%rdi
    8e3a:	74 12                	je     8e4e <_ZN4core3ptr13drop_in_place17he129aa9fa1d19118E+0x9e>
    8e3c:	48 c1 e6 06          	shl    $0x6,%rsi
    8e40:	74 0c                	je     8e4e <_ZN4core3ptr13drop_in_place17he129aa9fa1d19118E+0x9e>
    8e42:	ba 08 00 00 00       	mov    $0x8,%edx
    8e47:	5b                   	pop    %rbx
    8e48:	ff 25 8a fd 03 00    	jmpq   *0x3fd8a(%rip)        # 48bd8 <_GLOBAL_OFFSET_TABLE_+0x290>
    8e4e:	5b                   	pop    %rbx
    8e4f:	c3                   	retq   

0000000000008e50 <_ZN4core3ptr13drop_in_place17heb00edaa881c1a50E>:
    8e50:	48 8b 77 08          	mov    0x8(%rdi),%rsi
    8e54:	48 85 f6             	test   %rsi,%rsi
    8e57:	74 1c                	je     8e75 <_ZN4core3ptr13drop_in_place17heb00edaa881c1a50E+0x25>
    8e59:	48 8b 3f             	mov    (%rdi),%rdi
    8e5c:	48 85 ff             	test   %rdi,%rdi
    8e5f:	74 14                	je     8e75 <_ZN4core3ptr13drop_in_place17heb00edaa881c1a50E+0x25>
    8e61:	48 c1 e6 02          	shl    $0x2,%rsi
    8e65:	48 85 f6             	test   %rsi,%rsi
    8e68:	74 0b                	je     8e75 <_ZN4core3ptr13drop_in_place17heb00edaa881c1a50E+0x25>
    8e6a:	ba 02 00 00 00       	mov    $0x2,%edx
    8e6f:	ff 25 63 fd 03 00    	jmpq   *0x3fd63(%rip)        # 48bd8 <_GLOBAL_OFFSET_TABLE_+0x290>
    8e75:	c3                   	retq   
    8e76:	66 2e 0f 1f 84 00 00 	nopw   %cs:0x0(%rax,%rax,1)
    8e7d:	00 00 00 

0000000000008e80 <_ZN4core3ptr13drop_in_place17hecae3ff2730dd4e3E>:
    8e80:	48 8b 07             	mov    (%rdi),%rax
    8e83:	f0 48 83 28 01       	lock subq $0x1,(%rax)
    8e88:	75 05                	jne    8e8f <_ZN4core3ptr13drop_in_place17hecae3ff2730dd4e3E+0xf>
    8e8a:	e9 01 25 00 00       	jmpq   b390 <_ZN5alloc4sync12Arc$LT$T$GT$9drop_slow17h2be82c68ed00e38dE>
    8e8f:	c3                   	retq   

0000000000008e90 <_ZN4core3ptr13drop_in_place17hfc5a4770f637a819E>:
    8e90:	41 57                	push   %r15
    8e92:	41 56                	push   %r14
    8e94:	53                   	push   %rbx
    8e95:	48 89 fb             	mov    %rdi,%rbx
    8e98:	48 83 3f 00          	cmpq   $0x0,(%rdi)
    8e9c:	74 46                	je     8ee4 <_ZN4core3ptr13drop_in_place17hfc5a4770f637a819E+0x54>
    8e9e:	80 7b 08 02          	cmpb   $0x2,0x8(%rbx)
    8ea2:	72 62                	jb     8f06 <_ZN4core3ptr13drop_in_place17hfc5a4770f637a819E+0x76>
    8ea4:	4c 8b 7b 10          	mov    0x10(%rbx),%r15
    8ea8:	49 8b 3f             	mov    (%r15),%rdi
    8eab:	49 8b 47 08          	mov    0x8(%r15),%rax
    8eaf:	ff 10                	callq  *(%rax)
    8eb1:	49 8b 47 08          	mov    0x8(%r15),%rax
    8eb5:	48 8b 70 08          	mov    0x8(%rax),%rsi
    8eb9:	48 85 f6             	test   %rsi,%rsi
    8ebc:	74 0d                	je     8ecb <_ZN4core3ptr13drop_in_place17hfc5a4770f637a819E+0x3b>
    8ebe:	49 8b 3f             	mov    (%r15),%rdi
    8ec1:	48 8b 50 10          	mov    0x10(%rax),%rdx
    8ec5:	ff 15 0d fd 03 00    	callq  *0x3fd0d(%rip)        # 48bd8 <_GLOBAL_OFFSET_TABLE_+0x290>
    8ecb:	48 8b 7b 10          	mov    0x10(%rbx),%rdi
    8ecf:	be 18 00 00 00       	mov    $0x18,%esi
    8ed4:	ba 08 00 00 00       	mov    $0x8,%edx
    8ed9:	5b                   	pop    %rbx
    8eda:	41 5e                	pop    %r14
    8edc:	41 5f                	pop    %r15
    8ede:	ff 25 f4 fc 03 00    	jmpq   *0x3fcf4(%rip)        # 48bd8 <_GLOBAL_OFFSET_TABLE_+0x290>
    8ee4:	48 8b 7b 08          	mov    0x8(%rbx),%rdi
    8ee8:	48 85 ff             	test   %rdi,%rdi
    8eeb:	74 19                	je     8f06 <_ZN4core3ptr13drop_in_place17hfc5a4770f637a819E+0x76>
    8eed:	48 8b 73 10          	mov    0x10(%rbx),%rsi
    8ef1:	48 85 f6             	test   %rsi,%rsi
    8ef4:	74 10                	je     8f06 <_ZN4core3ptr13drop_in_place17hfc5a4770f637a819E+0x76>
    8ef6:	ba 01 00 00 00       	mov    $0x1,%edx
    8efb:	5b                   	pop    %rbx
    8efc:	41 5e                	pop    %r14
    8efe:	41 5f                	pop    %r15
    8f00:	ff 25 d2 fc 03 00    	jmpq   *0x3fcd2(%rip)        # 48bd8 <_GLOBAL_OFFSET_TABLE_+0x290>
    8f06:	5b                   	pop    %rbx
    8f07:	41 5e                	pop    %r14
    8f09:	41 5f                	pop    %r15
    8f0b:	c3                   	retq   
    8f0c:	49 89 c6             	mov    %rax,%r14
    8f0f:	49 8b 3f             	mov    (%r15),%rdi
    8f12:	49 8b 77 08          	mov    0x8(%r15),%rsi
    8f16:	e8 25 25 00 00       	callq  b440 <_ZN5alloc5alloc8box_free17h1f4a4987a41273f7E>
    8f1b:	48 8b 7b 10          	mov    0x10(%rbx),%rdi
    8f1f:	e8 3c 25 00 00       	callq  b460 <_ZN5alloc5alloc8box_free17h4e0e6c1158b88bb2E>
    8f24:	4c 89 f7             	mov    %r14,%rdi
    8f27:	e8 54 d1 ff ff       	callq  6080 <_Unwind_Resume@plt>
    8f2c:	0f 0b                	ud2    
    8f2e:	66 90                	xchg   %ax,%ax

0000000000008f30 <_ZN4core3ptr13drop_in_place17hfce244d2ad504d51E>:
    8f30:	48 89 f8             	mov    %rdi,%rax
    8f33:	48 8b 7f 08          	mov    0x8(%rdi),%rdi
    8f37:	48 85 ff             	test   %rdi,%rdi
    8f3a:	74 14                	je     8f50 <_ZN4core3ptr13drop_in_place17hfce244d2ad504d51E+0x20>
    8f3c:	48 8b 70 10          	mov    0x10(%rax),%rsi
    8f40:	48 85 f6             	test   %rsi,%rsi
    8f43:	74 0b                	je     8f50 <_ZN4core3ptr13drop_in_place17hfce244d2ad504d51E+0x20>
    8f45:	ba 01 00 00 00       	mov    $0x1,%edx
    8f4a:	ff 25 88 fc 03 00    	jmpq   *0x3fc88(%rip)        # 48bd8 <_GLOBAL_OFFSET_TABLE_+0x290>
    8f50:	c3                   	retq   
    8f51:	66 2e 0f 1f 84 00 00 	nopw   %cs:0x0(%rax,%rax,1)
    8f58:	00 00 00 
    8f5b:	0f 1f 44 00 00       	nopl   0x0(%rax,%rax,1)

0000000000008f60 <_ZN4core3str21_$LT$impl$u20$str$GT$8contains17h94dc374c5cced90bE>:
    8f60:	55                   	push   %rbp
    8f61:	41 57                	push   %r15
    8f63:	41 56                	push   %r14
    8f65:	41 55                	push   %r13
    8f67:	41 54                	push   %r12
    8f69:	53                   	push   %rbx
    8f6a:	48 83 ec 78          	sub    $0x78,%rsp
    8f6e:	49 89 c8             	mov    %rcx,%r8
    8f71:	48 89 d1             	mov    %rdx,%rcx
    8f74:	48 89 f2             	mov    %rsi,%rdx
    8f77:	48 89 fe             	mov    %rdi,%rsi
    8f7a:	48 8d 7c 24 08       	lea    0x8(%rsp),%rdi
    8f7f:	ff 15 9b fe 03 00    	callq  *0x3fe9b(%rip)        # 48e20 <_GLOBAL_OFFSET_TABLE_+0x4d8>
    8f85:	83 7c 24 28 01       	cmpl   $0x1,0x28(%rsp)
    8f8a:	75 62                	jne    8fee <_ZN4core3str21_$LT$impl$u20$str$GT$8contains17h94dc374c5cced90bE+0x8e>
    8f8c:	4c 8b 5c 24 60       	mov    0x60(%rsp),%r11
    8f91:	48 8b 74 24 20       	mov    0x20(%rsp),%rsi
    8f96:	48 8d 6e ff          	lea    -0x1(%rsi),%rbp
    8f9a:	4c 8b 54 24 08       	mov    0x8(%rsp),%r10
    8f9f:	4c 8b 44 24 10       	mov    0x10(%rsp),%r8
    8fa4:	4c 8b 4c 24 18       	mov    0x18(%rsp),%r9
    8fa9:	48 8b 54 24 50       	mov    0x50(%rsp),%rdx
    8fae:	48 8d 0c 16          	lea    (%rsi,%rdx,1),%rcx
    8fb2:	48 83 c1 ff          	add    $0xffffffffffffffff,%rcx
    8fb6:	49 83 fb ff          	cmp    $0xffffffffffffffff,%r11
    8fba:	0f 84 40 02 00 00    	je     9200 <_ZN4core3str21_$LT$impl$u20$str$GT$8contains17h94dc374c5cced90bE+0x2a0>
    8fc0:	4c 39 c1             	cmp    %r8,%rcx
    8fc3:	0f 83 0c 03 00 00    	jae    92d5 <_ZN4core3str21_$LT$impl$u20$str$GT$8contains17h94dc374c5cced90bE+0x375>
    8fc9:	4c 8b 74 24 48       	mov    0x48(%rsp),%r14
    8fce:	48 8b 5c 24 30       	mov    0x30(%rsp),%rbx
    8fd3:	48 8b 44 24 40       	mov    0x40(%rsp),%rax
    8fd8:	49 89 f4             	mov    %rsi,%r12
    8fdb:	48 89 44 24 70       	mov    %rax,0x70(%rsp)
    8fe0:	49 29 c4             	sub    %rax,%r12
    8fe3:	49 89 dd             	mov    %rbx,%r13
    8fe6:	49 f7 dd             	neg    %r13
    8fe9:	e9 55 01 00 00       	jmpq   9143 <_ZN4core3str21_$LT$impl$u20$str$GT$8contains17h94dc374c5cced90bE+0x1e3>
    8fee:	48 8b 7c 24 08       	mov    0x8(%rsp),%rdi
    8ff3:	48 8b 4c 24 10       	mov    0x10(%rsp),%rcx
    8ff8:	4c 8d 04 0f          	lea    (%rdi,%rcx,1),%r8
    8ffc:	44 8a 4c 24 40       	mov    0x40(%rsp),%r9b
    9001:	48 8b 54 24 30       	mov    0x30(%rsp),%rdx
    9006:	eb 0b                	jmp    9013 <_ZN4core3str21_$LT$impl$u20$str$GT$8contains17h94dc374c5cced90bE+0xb3>
    9008:	0f 1f 84 00 00 00 00 	nopl   0x0(%rax,%rax,1)
    900f:	00 
    9010:	48 01 c2             	add    %rax,%rdx
    9013:	45 89 cb             	mov    %r9d,%r11d
    9016:	45 84 c9             	test   %r9b,%r9b
    9019:	41 0f 94 c1          	sete   %r9b
    901d:	48 85 d2             	test   %rdx,%rdx
    9020:	74 15                	je     9037 <_ZN4core3str21_$LT$impl$u20$str$GT$8contains17h94dc374c5cced90bE+0xd7>
    9022:	48 39 d1             	cmp    %rdx,%rcx
    9025:	74 10                	je     9037 <_ZN4core3str21_$LT$impl$u20$str$GT$8contains17h94dc374c5cced90bE+0xd7>
    9027:	0f 86 c7 02 00 00    	jbe    92f4 <_ZN4core3str21_$LT$impl$u20$str$GT$8contains17h94dc374c5cced90bE+0x394>
    902d:	80 3c 17 bf          	cmpb   $0xbf,(%rdi,%rdx,1)
    9031:	0f 8e bd 02 00 00    	jle    92f4 <_ZN4core3str21_$LT$impl$u20$str$GT$8contains17h94dc374c5cced90bE+0x394>
    9037:	be 00 00 11 00       	mov    $0x110000,%esi
    903c:	48 39 d1             	cmp    %rdx,%rcx
    903f:	0f 84 9b 00 00 00    	je     90e0 <_ZN4core3str21_$LT$impl$u20$str$GT$8contains17h94dc374c5cced90bE+0x180>
    9045:	48 8d 1c 17          	lea    (%rdi,%rdx,1),%rbx
    9049:	0f b6 03             	movzbl (%rbx),%eax
    904c:	84 c0                	test   %al,%al
    904e:	78 07                	js     9057 <_ZN4core3str21_$LT$impl$u20$str$GT$8contains17h94dc374c5cced90bE+0xf7>
    9050:	89 c6                	mov    %eax,%esi
    9052:	e9 89 00 00 00       	jmpq   90e0 <_ZN4core3str21_$LT$impl$u20$str$GT$8contains17h94dc374c5cced90bE+0x180>
    9057:	48 8d 73 01          	lea    0x1(%rbx),%rsi
    905b:	4c 39 c6             	cmp    %r8,%rsi
    905e:	74 3b                	je     909b <_ZN4core3str21_$LT$impl$u20$str$GT$8contains17h94dc374c5cced90bE+0x13b>
    9060:	0f b6 73 01          	movzbl 0x1(%rbx),%esi
    9064:	48 83 c3 02          	add    $0x2,%rbx
    9068:	83 e6 3f             	and    $0x3f,%esi
    906b:	41 89 c2             	mov    %eax,%r10d
    906e:	41 83 e2 1f          	and    $0x1f,%r10d
    9072:	3c df                	cmp    $0xdf,%al
    9074:	76 35                	jbe    90ab <_ZN4core3str21_$LT$impl$u20$str$GT$8contains17h94dc374c5cced90bE+0x14b>
    9076:	4c 39 c3             	cmp    %r8,%rbx
    9079:	74 39                	je     90b4 <_ZN4core3str21_$LT$impl$u20$str$GT$8contains17h94dc374c5cced90bE+0x154>
    907b:	0f b6 2b             	movzbl (%rbx),%ebp
    907e:	48 83 c3 01          	add    $0x1,%rbx
    9082:	83 e5 3f             	and    $0x3f,%ebp
    9085:	c1 e6 06             	shl    $0x6,%esi
    9088:	09 ee                	or     %ebp,%esi
    908a:	3c f0                	cmp    $0xf0,%al
    908c:	72 34                	jb     90c2 <_ZN4core3str21_$LT$impl$u20$str$GT$8contains17h94dc374c5cced90bE+0x162>
    908e:	4c 39 c3             	cmp    %r8,%rbx
    9091:	74 38                	je     90cb <_ZN4core3str21_$LT$impl$u20$str$GT$8contains17h94dc374c5cced90bE+0x16b>
    9093:	0f b6 03             	movzbl (%rbx),%eax
    9096:	83 e0 3f             	and    $0x3f,%eax
    9099:	eb 32                	jmp    90cd <_ZN4core3str21_$LT$impl$u20$str$GT$8contains17h94dc374c5cced90bE+0x16d>
    909b:	31 f6                	xor    %esi,%esi
    909d:	4c 89 c3             	mov    %r8,%rbx
    90a0:	41 89 c2             	mov    %eax,%r10d
    90a3:	41 83 e2 1f          	and    $0x1f,%r10d
    90a7:	3c df                	cmp    $0xdf,%al
    90a9:	77 cb                	ja     9076 <_ZN4core3str21_$LT$impl$u20$str$GT$8contains17h94dc374c5cced90bE+0x116>
    90ab:	41 c1 e2 06          	shl    $0x6,%r10d
    90af:	44 09 d6             	or     %r10d,%esi
    90b2:	eb 2c                	jmp    90e0 <_ZN4core3str21_$LT$impl$u20$str$GT$8contains17h94dc374c5cced90bE+0x180>
    90b4:	31 ed                	xor    %ebp,%ebp
    90b6:	4c 89 c3             	mov    %r8,%rbx
    90b9:	c1 e6 06             	shl    $0x6,%esi
    90bc:	09 ee                	or     %ebp,%esi
    90be:	3c f0                	cmp    $0xf0,%al
    90c0:	73 cc                	jae    908e <_ZN4core3str21_$LT$impl$u20$str$GT$8contains17h94dc374c5cced90bE+0x12e>
    90c2:	41 c1 e2 0c          	shl    $0xc,%r10d
    90c6:	44 09 d6             	or     %r10d,%esi
    90c9:	eb 15                	jmp    90e0 <_ZN4core3str21_$LT$impl$u20$str$GT$8contains17h94dc374c5cced90bE+0x180>
    90cb:	31 c0                	xor    %eax,%eax
    90cd:	41 83 e2 07          	and    $0x7,%r10d
    90d1:	41 c1 e2 12          	shl    $0x12,%r10d
    90d5:	c1 e6 06             	shl    $0x6,%esi
    90d8:	44 09 d6             	or     %r10d,%esi
    90db:	09 c6                	or     %eax,%esi
    90dd:	0f 1f 00             	nopl   (%rax)
    90e0:	45 84 db             	test   %r11b,%r11b
    90e3:	0f 85 02 01 00 00    	jne    91eb <_ZN4core3str21_$LT$impl$u20$str$GT$8contains17h94dc374c5cced90bE+0x28b>
    90e9:	81 fe 00 00 11 00    	cmp    $0x110000,%esi
    90ef:	0f 84 fa 00 00 00    	je     91ef <_ZN4core3str21_$LT$impl$u20$str$GT$8contains17h94dc374c5cced90bE+0x28f>
    90f5:	b8 01 00 00 00       	mov    $0x1,%eax
    90fa:	81 fe 80 00 00 00    	cmp    $0x80,%esi
    9100:	0f 82 0a ff ff ff    	jb     9010 <_ZN4core3str21_$LT$impl$u20$str$GT$8contains17h94dc374c5cced90bE+0xb0>
    9106:	b8 02 00 00 00       	mov    $0x2,%eax
    910b:	81 fe 00 08 00 00    	cmp    $0x800,%esi
    9111:	0f 82 f9 fe ff ff    	jb     9010 <_ZN4core3str21_$LT$impl$u20$str$GT$8contains17h94dc374c5cced90bE+0xb0>
    9117:	81 fe 00 00 01 00    	cmp    $0x10000,%esi
    911d:	b8 04 00 00 00       	mov    $0x4,%eax
    9122:	48 83 d8 00          	sbb    $0x0,%rax
    9126:	e9 e5 fe ff ff       	jmpq   9010 <_ZN4core3str21_$LT$impl$u20$str$GT$8contains17h94dc374c5cced90bE+0xb0>
    912b:	0f 1f 44 00 00       	nopl   0x0(%rax,%rax,1)
    9130:	48 01 f2             	add    %rsi,%rdx
    9133:	45 31 db             	xor    %r11d,%r11d
    9136:	48 8d 0c 2a          	lea    (%rdx,%rbp,1),%rcx
    913a:	4c 39 c1             	cmp    %r8,%rcx
    913d:	0f 83 88 01 00 00    	jae    92cb <_ZN4core3str21_$LT$impl$u20$str$GT$8contains17h94dc374c5cced90bE+0x36b>
    9143:	41 0f b6 04 0a       	movzbl (%r10,%rcx,1),%eax
    9148:	49 0f a3 c6          	bt     %rax,%r14
    914c:	73 e2                	jae    9130 <_ZN4core3str21_$LT$impl$u20$str$GT$8contains17h94dc374c5cced90bE+0x1d0>
    914e:	49 89 ef             	mov    %rbp,%r15
    9151:	4c 39 db             	cmp    %r11,%rbx
    9154:	4c 89 d9             	mov    %r11,%rcx
    9157:	48 0f 47 cb          	cmova  %rbx,%rcx
    915b:	48 8d 3c 0a          	lea    (%rdx,%rcx,1),%rdi
    915f:	90                   	nop
    9160:	48 39 f1             	cmp    %rsi,%rcx
    9163:	73 3b                	jae    91a0 <_ZN4core3str21_$LT$impl$u20$str$GT$8contains17h94dc374c5cced90bE+0x240>
    9165:	4c 39 c7             	cmp    %r8,%rdi
    9168:	0f 83 7d 01 00 00    	jae    92eb <_ZN4core3str21_$LT$impl$u20$str$GT$8contains17h94dc374c5cced90bE+0x38b>
    916e:	41 0f b6 04 09       	movzbl (%r9,%rcx,1),%eax
    9173:	48 83 c1 01          	add    $0x1,%rcx
    9177:	48 8d 6f 01          	lea    0x1(%rdi),%rbp
    917b:	41 3a 04 3a          	cmp    (%r10,%rdi,1),%al
    917f:	48 89 ef             	mov    %rbp,%rdi
    9182:	74 dc                	je     9160 <_ZN4core3str21_$LT$impl$u20$str$GT$8contains17h94dc374c5cced90bE+0x200>
    9184:	4c 01 ed             	add    %r13,%rbp
    9187:	45 31 db             	xor    %r11d,%r11d
    918a:	48 89 ea             	mov    %rbp,%rdx
    918d:	4c 89 fd             	mov    %r15,%rbp
    9190:	eb a4                	jmp    9136 <_ZN4core3str21_$LT$impl$u20$str$GT$8contains17h94dc374c5cced90bE+0x1d6>
    9192:	66 2e 0f 1f 84 00 00 	nopw   %cs:0x0(%rax,%rax,1)
    9199:	00 00 00 
    919c:	0f 1f 40 00          	nopl   0x0(%rax)
    91a0:	48 89 df             	mov    %rbx,%rdi
    91a3:	4c 89 fd             	mov    %r15,%rbp
    91a6:	66 2e 0f 1f 84 00 00 	nopw   %cs:0x0(%rax,%rax,1)
    91ad:	00 00 00 
    91b0:	49 39 fb             	cmp    %rdi,%r11
    91b3:	0f 83 f1 00 00 00    	jae    92aa <_ZN4core3str21_$LT$impl$u20$str$GT$8contains17h94dc374c5cced90bE+0x34a>
    91b9:	48 83 c7 ff          	add    $0xffffffffffffffff,%rdi
    91bd:	48 39 f7             	cmp    %rsi,%rdi
    91c0:	0f 83 40 01 00 00    	jae    9306 <_ZN4core3str21_$LT$impl$u20$str$GT$8contains17h94dc374c5cced90bE+0x3a6>
    91c6:	48 8d 0c 17          	lea    (%rdi,%rdx,1),%rcx
    91ca:	4c 39 c1             	cmp    %r8,%rcx
    91cd:	0f 83 42 01 00 00    	jae    9315 <_ZN4core3str21_$LT$impl$u20$str$GT$8contains17h94dc374c5cced90bE+0x3b5>
    91d3:	41 0f b6 04 39       	movzbl (%r9,%rdi,1),%eax
    91d8:	41 3a 04 0a          	cmp    (%r10,%rcx,1),%al
    91dc:	74 d2                	je     91b0 <_ZN4core3str21_$LT$impl$u20$str$GT$8contains17h94dc374c5cced90bE+0x250>
    91de:	48 03 54 24 70       	add    0x70(%rsp),%rdx
    91e3:	4d 89 e3             	mov    %r12,%r11
    91e6:	e9 4b ff ff ff       	jmpq   9136 <_ZN4core3str21_$LT$impl$u20$str$GT$8contains17h94dc374c5cced90bE+0x1d6>
    91eb:	b0 01                	mov    $0x1,%al
    91ed:	eb 02                	jmp    91f1 <_ZN4core3str21_$LT$impl$u20$str$GT$8contains17h94dc374c5cced90bE+0x291>
    91ef:	31 c0                	xor    %eax,%eax
    91f1:	44 88 4c 24 40       	mov    %r9b,0x40(%rsp)
    91f6:	48 89 54 24 30       	mov    %rdx,0x30(%rsp)
    91fb:	e9 dc 00 00 00       	jmpq   92dc <_ZN4core3str21_$LT$impl$u20$str$GT$8contains17h94dc374c5cced90bE+0x37c>
    9200:	4c 39 c1             	cmp    %r8,%rcx
    9203:	0f 83 cc 00 00 00    	jae    92d5 <_ZN4core3str21_$LT$impl$u20$str$GT$8contains17h94dc374c5cced90bE+0x375>
    9209:	4c 8b 5c 24 48       	mov    0x48(%rsp),%r11
    920e:	48 8b 5c 24 30       	mov    0x30(%rsp),%rbx
    9213:	4c 8b 74 24 40       	mov    0x40(%rsp),%r14
    9218:	4d 8d 3c 1a          	lea    (%r10,%rbx,1),%r15
    921c:	4d 8d 24 19          	lea    (%r9,%rbx,1),%r12
    9220:	eb 13                	jmp    9235 <_ZN4core3str21_$LT$impl$u20$str$GT$8contains17h94dc374c5cced90bE+0x2d5>
    9222:	49 01 f5             	add    %rsi,%r13
    9225:	4c 89 ea             	mov    %r13,%rdx
    9228:	48 8d 0c 2a          	lea    (%rdx,%rbp,1),%rcx
    922c:	4c 39 c1             	cmp    %r8,%rcx
    922f:	0f 83 9b 00 00 00    	jae    92d0 <_ZN4core3str21_$LT$impl$u20$str$GT$8contains17h94dc374c5cced90bE+0x370>
    9235:	49 89 d5             	mov    %rdx,%r13
    9238:	41 0f b6 0c 0a       	movzbl (%r10,%rcx,1),%ecx
    923d:	49 0f a3 cb          	bt     %rcx,%r11
    9241:	73 df                	jae    9222 <_ZN4core3str21_$LT$impl$u20$str$GT$8contains17h94dc374c5cced90bE+0x2c2>
    9243:	31 c9                	xor    %ecx,%ecx
    9245:	4c 89 ea             	mov    %r13,%rdx
    9248:	0f 1f 84 00 00 00 00 	nopl   0x0(%rax,%rax,1)
    924f:	00 
    9250:	48 8d 3c 0b          	lea    (%rbx,%rcx,1),%rdi
    9254:	48 39 f7             	cmp    %rsi,%rdi
    9257:	73 22                	jae    927b <_ZN4core3str21_$LT$impl$u20$str$GT$8contains17h94dc374c5cced90bE+0x31b>
    9259:	48 8d 3c 13          	lea    (%rbx,%rdx,1),%rdi
    925d:	4c 39 c7             	cmp    %r8,%rdi
    9260:	0f 83 85 00 00 00    	jae    92eb <_ZN4core3str21_$LT$impl$u20$str$GT$8contains17h94dc374c5cced90bE+0x38b>
    9266:	41 0f b6 04 0c       	movzbl (%r12,%rcx,1),%eax
    926b:	48 83 c1 01          	add    $0x1,%rcx
    926f:	41 3a 04 17          	cmp    (%r15,%rdx,1),%al
    9273:	48 8d 52 01          	lea    0x1(%rdx),%rdx
    9277:	74 d7                	je     9250 <_ZN4core3str21_$LT$impl$u20$str$GT$8contains17h94dc374c5cced90bE+0x2f0>
    9279:	eb ad                	jmp    9228 <_ZN4core3str21_$LT$impl$u20$str$GT$8contains17h94dc374c5cced90bE+0x2c8>
    927b:	48 89 df             	mov    %rbx,%rdi
    927e:	66 90                	xchg   %ax,%ax
    9280:	48 85 ff             	test   %rdi,%rdi
    9283:	74 3a                	je     92bf <_ZN4core3str21_$LT$impl$u20$str$GT$8contains17h94dc374c5cced90bE+0x35f>
    9285:	48 83 c7 ff          	add    $0xffffffffffffffff,%rdi
    9289:	48 39 f7             	cmp    %rsi,%rdi
    928c:	73 78                	jae    9306 <_ZN4core3str21_$LT$impl$u20$str$GT$8contains17h94dc374c5cced90bE+0x3a6>
    928e:	4a 8d 0c 2f          	lea    (%rdi,%r13,1),%rcx
    9292:	4c 39 c1             	cmp    %r8,%rcx
    9295:	73 7e                	jae    9315 <_ZN4core3str21_$LT$impl$u20$str$GT$8contains17h94dc374c5cced90bE+0x3b5>
    9297:	41 0f b6 14 39       	movzbl (%r9,%rdi,1),%edx
    929c:	41 3a 14 0a          	cmp    (%r10,%rcx,1),%dl
    92a0:	74 de                	je     9280 <_ZN4core3str21_$LT$impl$u20$str$GT$8contains17h94dc374c5cced90bE+0x320>
    92a2:	4d 01 f5             	add    %r14,%r13
    92a5:	e9 7b ff ff ff       	jmpq   9225 <_ZN4core3str21_$LT$impl$u20$str$GT$8contains17h94dc374c5cced90bE+0x2c5>
    92aa:	48 01 f2             	add    %rsi,%rdx
    92ad:	48 89 54 24 50       	mov    %rdx,0x50(%rsp)
    92b2:	48 c7 44 24 60 00 00 	movq   $0x0,0x60(%rsp)
    92b9:	00 00 
    92bb:	b0 01                	mov    $0x1,%al
    92bd:	eb 1d                	jmp    92dc <_ZN4core3str21_$LT$impl$u20$str$GT$8contains17h94dc374c5cced90bE+0x37c>
    92bf:	49 01 f5             	add    %rsi,%r13
    92c2:	4c 89 6c 24 50       	mov    %r13,0x50(%rsp)
    92c7:	b0 01                	mov    $0x1,%al
    92c9:	eb 11                	jmp    92dc <_ZN4core3str21_$LT$impl$u20$str$GT$8contains17h94dc374c5cced90bE+0x37c>
    92cb:	4c 89 5c 24 60       	mov    %r11,0x60(%rsp)
    92d0:	48 89 54 24 50       	mov    %rdx,0x50(%rsp)
    92d5:	4c 89 44 24 50       	mov    %r8,0x50(%rsp)
    92da:	31 c0                	xor    %eax,%eax
    92dc:	48 83 c4 78          	add    $0x78,%rsp
    92e0:	5b                   	pop    %rbx
    92e1:	41 5c                	pop    %r12
    92e3:	41 5d                	pop    %r13
    92e5:	41 5e                	pop    %r14
    92e7:	41 5f                	pop    %r15
    92e9:	5d                   	pop    %rbp
    92ea:	c3                   	retq   
    92eb:	48 8d 15 f6 d2 03 00 	lea    0x3d2f6(%rip),%rdx        # 465e8 <anon.14c24cb995e3d6e38322ebd61970439a.0.llvm.3793478678705122716+0x1a8>
    92f2:	eb 2b                	jmp    931f <_ZN4core3str21_$LT$impl$u20$str$GT$8contains17h94dc374c5cced90bE+0x3bf>
    92f4:	4c 8d 05 6d d6 03 00 	lea    0x3d66d(%rip),%r8        # 46968 <anon.14c24cb995e3d6e38322ebd61970439a.0.llvm.3793478678705122716+0x528>
    92fb:	48 89 ce             	mov    %rcx,%rsi
    92fe:	ff 15 74 f7 03 00    	callq  *0x3f774(%rip)        # 48a78 <_GLOBAL_OFFSET_TABLE_+0x130>
    9304:	0f 0b                	ud2    
    9306:	48 8d 15 f3 d2 03 00 	lea    0x3d2f3(%rip),%rdx        # 46600 <anon.14c24cb995e3d6e38322ebd61970439a.0.llvm.3793478678705122716+0x1c0>
    930d:	ff 15 6d f8 03 00    	callq  *0x3f86d(%rip)        # 48b80 <_GLOBAL_OFFSET_TABLE_+0x238>
    9313:	0f 0b                	ud2    
    9315:	48 8d 15 fc d2 03 00 	lea    0x3d2fc(%rip),%rdx        # 46618 <anon.14c24cb995e3d6e38322ebd61970439a.0.llvm.3793478678705122716+0x1d8>
    931c:	48 89 cf             	mov    %rcx,%rdi
    931f:	4c 89 c6             	mov    %r8,%rsi
    9322:	ff 15 58 f8 03 00    	callq  *0x3f858(%rip)        # 48b80 <_GLOBAL_OFFSET_TABLE_+0x238>
    9328:	0f 0b                	ud2    
    932a:	66 0f 1f 44 00 00    	nopw   0x0(%rax,%rax,1)

0000000000009330 <_ZN4core5slice4sort14break_patterns17h8cff6d2121a8cf8fE>:
    9330:	48 83 ec 18          	sub    $0x18,%rsp
    9334:	48 83 fe 08          	cmp    $0x8,%rsi
    9338:	0f 82 dd 01 00 00    	jb     951b <_ZN4core5slice4sort14break_patterns17h8cff6d2121a8cf8fE+0x1eb>
    933e:	48 8d 46 ff          	lea    -0x1(%rsi),%rax
    9342:	48 0f bd c8          	bsr    %rax,%rcx
    9346:	83 f1 3f             	xor    $0x3f,%ecx
    9349:	49 c7 c0 ff ff ff ff 	mov    $0xffffffffffffffff,%r8
    9350:	49 d3 e8             	shr    %cl,%r8
    9353:	49 89 f2             	mov    %rsi,%r10
    9356:	49 c1 ea 02          	shr    $0x2,%r10
    935a:	4f 8d 0c 12          	lea    (%r10,%r10,1),%r9
    935e:	49 83 c1 ff          	add    $0xffffffffffffffff,%r9
    9362:	89 f0                	mov    %esi,%eax
    9364:	c1 e0 0d             	shl    $0xd,%eax
    9367:	31 f0                	xor    %esi,%eax
    9369:	89 c1                	mov    %eax,%ecx
    936b:	c1 e9 11             	shr    $0x11,%ecx
    936e:	31 c1                	xor    %eax,%ecx
    9370:	89 c8                	mov    %ecx,%eax
    9372:	c1 e0 05             	shl    $0x5,%eax
    9375:	31 c8                	xor    %ecx,%eax
    9377:	89 c1                	mov    %eax,%ecx
    9379:	c1 e1 0d             	shl    $0xd,%ecx
    937c:	31 c1                	xor    %eax,%ecx
    937e:	89 ca                	mov    %ecx,%edx
    9380:	c1 ea 11             	shr    $0x11,%edx
    9383:	31 ca                	xor    %ecx,%edx
    9385:	41 89 d3             	mov    %edx,%r11d
    9388:	41 c1 e3 05          	shl    $0x5,%r11d
    938c:	41 31 d3             	xor    %edx,%r11d
    938f:	48 c1 e0 20          	shl    $0x20,%rax
    9393:	4c 01 d8             	add    %r11,%rax
    9396:	4c 21 c0             	and    %r8,%rax
    9399:	31 d2                	xor    %edx,%edx
    939b:	48 39 f0             	cmp    %rsi,%rax
    939e:	48 0f 43 d6          	cmovae %rsi,%rdx
    93a2:	49 39 f1             	cmp    %rsi,%r9
    93a5:	0f 83 8a 01 00 00    	jae    9535 <_ZN4core5slice4sort14break_patterns17h8cff6d2121a8cf8fE+0x205>
    93ab:	48 29 d0             	sub    %rdx,%rax
    93ae:	48 39 f0             	cmp    %rsi,%rax
    93b1:	0f 83 69 01 00 00    	jae    9520 <_ZN4core5slice4sort14break_patterns17h8cff6d2121a8cf8fE+0x1f0>
    93b7:	4d 01 d2             	add    %r10,%r10
    93ba:	4b 8d 14 49          	lea    (%r9,%r9,2),%rdx
    93be:	48 8d 04 40          	lea    (%rax,%rax,2),%rax
    93c2:	48 8b 4c d7 10       	mov    0x10(%rdi,%rdx,8),%rcx
    93c7:	48 89 4c 24 10       	mov    %rcx,0x10(%rsp)
    93cc:	0f 10 04 d7          	movups (%rdi,%rdx,8),%xmm0
    93d0:	0f 29 04 24          	movaps %xmm0,(%rsp)
    93d4:	48 8b 4c c7 10       	mov    0x10(%rdi,%rax,8),%rcx
    93d9:	0f 10 04 c7          	movups (%rdi,%rax,8),%xmm0
    93dd:	0f 11 04 d7          	movups %xmm0,(%rdi,%rdx,8)
    93e1:	48 89 4c d7 10       	mov    %rcx,0x10(%rdi,%rdx,8)
